(dp0
S'top'
p1
(lp2
S'JACKETS'
p3
aS'TOPS'
p4
aS'VESTS'
p5
aS'BLAZERS'
p6
aS'TSHIRT'
p7
aS'SHIRTS'
p8
aS'HOODIES'
p9
asS'onepiece'
p10
(lp11
S'TUNICS'
p12
aS'JUMPSUIT'
p13
aS'DRESSES'
p14
asS'bottom'
p15
(lp16
S'JEANS'
p17
aS'BOTTOMS'
p18
aS'SKIRTS'
p19
aS'LEGGINGS'
p20
aS'SHORTS'
p21
aS'TROUSERS'
p22
as.