(lp0
S'http://www.hm.com/us/product/61624?article=61624-A'
p1
aS'http://www.hm.com/us/product/66498?article=66498-D'
p2
aS'http://www.hm.com/us/product/66498?article=66498-B'
p3
aS'http://www.hm.com/us/product/58756?article=58756-V'
p4
aS'http://www.hm.com/us/product/63877?article=63877-L'
p5
aS'http://www.hm.com/us/product/46954?article=46954-C'
p6
aS'http://www.hm.com/us/product/39670?article=39670-P'
p7
aS'http://www.hm.com/us/product/60865?article=60865-J'
p8
aS'http://www.hm.com/us/product/48256?article=48256-E'
p9
aS'http://www.hm.com/us/product/51117?article=51117-H'
p10
aS'http://www.hm.com/us/product/61979?article=61979-F'
p11
aS'http://www.hm.com/us/product/47586?article=47586-K'
p12
aS'http://www.hm.com/us/product/63822?article=63822-D'
p13
aS'http://www.hm.com/us/product/61153?article=61153-E'
p14
aS'http://www.hm.com/us/product/61624?article=61624-E'
p15
aS'http://www.hm.com/us/product/66498?article=66498-F'
p16
aS'http://www.hm.com/us/product/42097?article=42097-J'
p17
aS'http://www.hm.com/us/product/27446?article=27446-A'
p18
aS'http://www.hm.com/us/product/58756?article=58756-T'
p19
aS'http://www.hm.com/us/product/66498?article=66498-E'
p20
aS'http://www.hm.com/us/product/42097?article=42097-A'
p21
aS'http://www.hm.com/us/product/65048?article=65048-A'
p22
aS'http://www.hm.com/us/product/47714?article=47714-A'
p23
aS'http://www.hm.com/us/product/63213?article=63213-N'
p24
aS'http://www.hm.com/us/product/47714?article=47714-M'
p25
aS'http://www.hm.com/us/product/63213?article=63213-E'
p26
aS'http://www.hm.com/us/product/67004?article=67004-A'
p27
aS'http://www.hm.com/us/product/46072?article=46072-J'
p28
aS'http://www.hm.com/us/product/61624?article=61624-I'
p29
aS'http://www.hm.com/us/product/60191?article=60191-G'
p30
aS'http://www.hm.com/us/product/61891?article=61891-E'
p31
aS'http://www.hm.com/us/product/70363?article=70363-A'
p32
aS'http://www.hm.com/us/product/60191?article=60191-B'
p33
aS'http://www.hm.com/us/product/49560?article=49560-G'
p34
aS'http://www.hm.com/us/product/63213?article=63213-H'
p35
aS'http://www.hm.com/us/product/66173?article=66173-A'
p36
aS'http://www.hm.com/us/product/63213?article=63213-P'
p37
aS'http://www.hm.com/us/product/59719?article=59719-J'
p38
aS'http://www.hm.com/us/product/66498?article=66498-A'
p39
aS'http://www.hm.com/us/product/87648?article=87648-T'
p40
aS'http://www.hm.com/us/product/58756?article=58756-J'
p41
aS'http://www.hm.com/us/product/85961?article=85961-B'
p42
aS'http://www.hm.com/us/product/66849?article=66849-B'
p43
aS'http://www.hm.com/us/product/47714?article=47714-K'
p44
aS'http://www.hm.com/us/product/42097?article=42097-C'
p45
aS'http://www.hm.com/us/product/85961?article=85961-A'
p46
aS'http://www.hm.com/us/product/47766?article=47766-G'
p47
aS'http://www.hm.com/us/product/66173?article=66173-I'
p48
aS'http://www.hm.com/us/product/48398?article=48398-K'
p49
aS'http://www.hm.com/us/product/51117?article=51117-F'
p50
aS'http://www.hm.com/us/product/60865?article=60865-A'
p51
aS'http://www.hm.com/us/product/48256?article=48256-F'
p52
aS'http://www.hm.com/us/product/67004?article=67004-B'
p53
aS'http://www.hm.com/us/product/42952?article=42952-A'
p54
aS'http://www.hm.com/us/product/63056?article=63056-A'
p55
aS'http://www.hm.com/us/product/59319?article=59319-I'
p56
aS'http://www.hm.com/us/product/47766?article=47766-B'
p57
aS'http://www.hm.com/us/product/59319?article=59319-L'
p58
aS'http://www.hm.com/us/product/11667?article=11667-L'
p59
aS'http://www.hm.com/us/product/47714?article=47714-I'
p60
aS'http://www.hm.com/us/product/60865?article=60865-A'
p61
aS'http://www.hm.com/us/product/61515?article=61515-P'
p62
aS'http://www.hm.com/us/product/66849?article=66849-B'
p63
aS'http://www.hm.com/us/product/47606?article=47606-A'
p64
aS'http://www.hm.com/us/product/47714?article=47714-K'
p65
aS'http://www.hm.com/us/product/42097?article=42097-C'
p66
aS'http://www.hm.com/us/product/46072?article=46072-C'
p67
aS'http://www.hm.com/us/product/48240?article=48240-D'
p68
aS'http://www.hm.com/us/product/01915?article=01915-V'
p69
aS'http://www.hm.com/us/product/48455?article=48455-J'
p70
aS'http://www.hm.com/us/product/46661?article=46661-C'
p71
aS'http://www.hm.com/us/product/66173?article=66173-K'
p72
aS'http://www.hm.com/us/product/39694?article=39694-E'
p73
aS'http://www.hm.com/us/product/42902?article=42902-A'
p74
aS'http://www.hm.com/us/product/61624?article=61624-H'
p75
aS'http://www.hm.com/us/product/63056?article=63056-B'
p76
aS'http://www.hm.com/us/product/66173?article=66173-F'
p77
aS'http://www.hm.com/us/product/66173?article=66173-J'
p78
aS'http://www.hm.com/us/product/11667?article=11667-B'
p79
aS'http://www.hm.com/us/product/63056?article=63056-A'
p80
aS'http://www.hm.com/us/product/61891?article=61891-A'
p81
aS'http://www.hm.com/us/product/65743?article=65743-D'
p82
aS'http://www.hm.com/us/product/49916?article=49916-B'
p83
aS'http://www.hm.com/us/product/63056?article=63056-G'
p84
aS'http://www.hm.com/us/product/60191?article=60191-T'
p85
aS'http://www.hm.com/us/product/42952?article=42952-B'
p86
aS'http://www.hm.com/us/product/63213?article=63213-D'
p87
aS'http://www.hm.com/us/product/47714?article=47714-B'
p88
aS'http://www.hm.com/us/product/65992?article=65992-C'
p89
aS'http://www.hm.com/us/product/61906?article=61906-B'
p90
aS'http://www.hm.com/us/product/39694?article=39694-J'
p91
aS'http://www.hm.com/us/product/02471?article=02471-D'
p92
aS'http://www.hm.com/us/product/59319?article=59319-I'
p93
aS'http://www.hm.com/us/product/37580?article=37580-E'
p94
aS'http://www.hm.com/us/product/68533?article=68533-A'
p95
aS'http://www.hm.com/us/product/60191?article=60191-S'
p96
aS'http://www.hm.com/us/product/49560?article=49560-D'
p97
aS'http://www.hm.com/us/product/60865?article=60865-I'
p98
aS'http://www.hm.com/us/product/66851?article=66851-A'
p99
aS'http://www.hm.com/us/product/61159?article=61159-C'
p100
aS'http://www.hm.com/us/product/02779?article=02779-K'
p101
aS'http://www.hm.com/us/product/66804?article=66804-A'
p102
aS'http://www.hm.com/us/product/39670?article=39670-T'
p103
aS'http://www.hm.com/us/product/65743?article=65743-B'
p104
aS'http://www.hm.com/us/product/48240?article=48240-B'
p105
aS'http://www.hm.com/us/product/59719?article=59719-D'
p106
aS'http://www.hm.com/us/product/48240?article=48240-E'
p107
aS'http://www.hm.com/us/product/69465?article=69465-A'
p108
aS'http://www.hm.com/us/product/45476?article=45476-C'
p109
aS'http://www.hm.com/us/product/29840?article=29840-H'
p110
aS'http://www.hm.com/us/product/60191?article=60191-H'
p111
aS'http://www.hm.com/us/product/65248?article=65248-B'
p112
aS'http://www.hm.com/us/product/69384?article=69384-A'
p113
aS'http://www.hm.com/us/product/39670?article=39670-Q'
p114
aS'http://www.hm.com/us/product/48455?article=48455-N'
p115
aS'http://www.hm.com/us/product/65992?article=65992-A'
p116
aS'http://www.hm.com/us/product/53068?article=53068-A'
p117
aS'http://www.hm.com/us/product/70484?article=70484-A'
p118
aS'http://www.hm.com/us/product/48398?article=48398-I'
p119
aS'http://www.hm.com/us/product/59319?article=59319-J'
p120
aS'http://www.hm.com/us/product/02779?article=02779-P'
p121
aS'http://www.hm.com/us/product/59806?article=59806-C'
p122
aS'http://www.hm.com/us/product/97848?article=97848-A'
p123
aS'http://www.hm.com/us/product/59319?article=59319-G'
p124
aS'http://www.hm.com/us/product/63740?article=63740-D'
p125
aS'http://www.hm.com/us/product/02779?article=02779-N'
p126
aS'http://www.hm.com/us/product/68359?article=68359-A'
p127
aS'http://www.hm.com/us/product/59719?article=59719-B'
p128
aS'http://www.hm.com/us/product/66512?article=66512-E'
p129
aS'http://www.hm.com/us/product/61159?article=61159-H'
p130
aS'http://www.hm.com/us/product/62764?article=62764-R'
p131
aS'http://www.hm.com/us/product/63877?article=63877-H'
p132
aS'http://www.hm.com/us/product/53068?article=53068-L'
p133
aS'http://www.hm.com/us/product/67004?article=67004-F'
p134
aS'http://www.hm.com/us/product/65602?article=65602-B'
p135
aS'http://www.hm.com/us/product/59665?article=59665-C'
p136
aS'http://www.hm.com/us/product/65718?article=65718-C'
p137
aS'http://www.hm.com/us/product/63877?article=63877-G'
p138
aS'http://www.hm.com/us/product/29840?article=29840-G'
p139
aS'http://www.hm.com/us/product/65718?article=65718-A'
p140
aS'http://www.hm.com/us/product/09988?article=09988-S'
p141
aS'http://www.hm.com/us/product/69970?article=69970-D'
p142
aS'http://www.hm.com/us/product/66851?article=66851-B'
p143
aS'http://www.hm.com/us/product/69371?article=69371-E'
p144
aS'http://www.hm.com/us/product/46954?article=46954-H'
p145
aS'http://www.hm.com/us/product/68041?article=68041-B'
p146
aS'http://www.hm.com/us/product/63877?article=63877-I'
p147
aS'http://www.hm.com/us/product/68798?article=68798-A'
p148
aS'http://www.hm.com/us/product/29840?article=29840-E'
p149
aS'http://www.hm.com/us/product/51117?article=51117-G'
p150
aS'http://www.hm.com/us/product/45476?article=45476-B'
p151
aS'http://www.hm.com/us/product/09988?article=09988-A'
p152
aS'http://www.hm.com/us/product/65792?article=65792-B'
p153
aS'http://www.hm.com/us/product/65743?article=65743-A'
p154
aS'http://www.hm.com/us/product/67985?article=67985-B'
p155
aS'http://www.hm.com/us/product/67148?article=67148-A'
p156
aS'http://www.hm.com/us/product/69412?article=69412-C'
p157
aS'http://www.hm.com/us/product/64095?article=64095-B'
p158
aS'http://www.hm.com/us/product/01915?article=01915-T'
p159
aS'http://www.hm.com/us/product/69394?article=69394-A'
p160
aS'http://www.hm.com/us/product/47586?article=47586-I'
p161
aS'http://www.hm.com/us/product/53527?article=53527-B'
p162
aS'http://www.hm.com/us/product/65248?article=65248-A'
p163
aS'http://www.hm.com/us/product/02779?article=02779-L'
p164
aS'http://www.hm.com/us/product/70390?article=70390-A'
p165
aS'http://www.hm.com/us/product/43248?article=43248-E'
p166
aS'http://www.hm.com/us/product/35467?article=35467-Q'
p167
aS'http://www.hm.com/us/product/46072?article=46072-H'
p168
aS'http://www.hm.com/us/product/65698?article=65698-A'
p169
aS'http://www.hm.com/us/product/60190?article=60190-C'
p170
aS'http://www.hm.com/us/product/60725?article=60725-E'
p171
aS'http://www.hm.com/us/product/61515?article=61515-A'
p172
aS'http://www.hm.com/us/product/39670?article=39670-R'
p173
aS'http://www.hm.com/us/product/65718?article=65718-F'
p174
aS'http://www.hm.com/us/product/68533?article=68533-B'
p175
aS'http://www.hm.com/us/product/00468?article=00468-A'
p176
aS'http://www.hm.com/us/product/65391?article=65391-A'
p177
aS'http://www.hm.com/us/product/01915?article=01915-Y'
p178
aS'http://www.hm.com/us/product/60576?article=60576-E'
p179
aS'http://www.hm.com/us/product/59598?article=59598-B'
p180
aS'http://www.hm.com/us/product/48240?article=48240-C'
p181
aS'http://www.hm.com/us/product/00468?article=00468-B'
p182
aS'http://www.hm.com/us/product/70819?article=70819-A'
p183
aS'http://www.hm.com/us/product/68556?article=68556-D'
p184
aS'http://www.hm.com/us/product/52886?article=52886-A'
p185
aS'http://www.hm.com/us/product/02779?article=02779-Q'
p186
aS'http://www.hm.com/us/product/38579?article=38579-G'
p187
aS'http://www.hm.com/us/product/67985?article=67985-D'
p188
aS'http://www.hm.com/us/product/39670?article=39670-U'
p189
aS'http://www.hm.com/us/product/65718?article=65718-B'
p190
aS'http://www.hm.com/us/product/69970?article=69970-A'
p191
aS'http://www.hm.com/us/product/61979?article=61979-G'
p192
aS'http://www.hm.com/us/product/47586?article=47586-L'
p193
aS'http://www.hm.com/us/product/56281?article=56281-H'
p194
aS'http://www.hm.com/us/product/64941?article=64941-B'
p195
aS'http://www.hm.com/us/product/70015?article=70015-A'
p196
aS'http://www.hm.com/us/product/65743?article=65743-C'
p197
aS'http://www.hm.com/us/product/63713?article=63713-A'
p198
aS'http://www.hm.com/us/product/49916?article=49916-E'
p199
aS'http://www.hm.com/us/product/65712?article=65712-B'
p200
aS'http://www.hm.com/us/product/67985?article=67985-A'
p201
aS'http://www.hm.com/us/product/48533?article=48533-B'
p202
aS'http://www.hm.com/us/product/63056?article=63056-J'
p203
aS'http://www.hm.com/us/product/46661?article=46661-B'
p204
aS'http://www.hm.com/us/product/47606?article=47606-C'
p205
aS'http://www.hm.com/us/product/56281?article=56281-N'
p206
aS'http://www.hm.com/us/product/13904?article=13904-N'
p207
aS'http://www.hm.com/us/product/46471?article=46471-A'
p208
aS'http://www.hm.com/us/product/68403?article=68403-A'
p209
aS'http://www.hm.com/us/product/49365?article=49365-A'
p210
aS'http://www.hm.com/us/product/64116?article=64116-C'
p211
aS'http://www.hm.com/us/product/70863?article=70863-A'
p212
aS'http://www.hm.com/us/product/47606?article=47606-B'
p213
aS'http://www.hm.com/us/product/68991?article=68991-A'
p214
aS'http://www.hm.com/us/product/53068?article=53068-D'
p215
aS'http://www.hm.com/us/product/62764?article=62764-F'
p216
aS'http://www.hm.com/us/product/65247?article=65247-C'
p217
aS'http://www.hm.com/us/product/49036?article=49036-I'
p218
aS'http://www.hm.com/us/product/52886?article=52886-B'
p219
aS'http://www.hm.com/us/product/59873?article=59873-A'
p220
aS'http://www.hm.com/us/product/64095?article=64095-F'
p221
aS'http://www.hm.com/us/product/70925?article=70925-A'
p222
aS'http://www.hm.com/us/product/59598?article=59598-A'
p223
aS'http://www.hm.com/us/product/49036?article=49036-A'
p224
aS'http://www.hm.com/us/product/71576?article=71576-B'
p225
aS'http://www.hm.com/us/product/68067?article=68067-A'
p226
aS'http://www.hm.com/us/product/45476?article=45476-A'
p227
aS'http://www.hm.com/us/product/61464?article=61464-A'
p228
aS'http://www.hm.com/us/product/68533?article=68533-C'
p229
aS'http://www.hm.com/us/product/60170?article=60170-A'
p230
aS'http://www.hm.com/us/product/68445?article=68445-A'
p231
aS'http://www.hm.com/us/product/69010?article=69010-A'
p232
aS'http://www.hm.com/us/product/63360?article=63360-H'
p233
aS'http://www.hm.com/us/product/23987?article=23987-F'
p234
aS'http://www.hm.com/us/product/48467?article=48467-A'
p235
aS'http://www.hm.com/us/product/64457?article=64457-A'
p236
aS'http://www.hm.com/us/product/59723?article=59723-A'
p237
aS'http://www.hm.com/us/product/46471?article=46471-C'
p238
aS'http://www.hm.com/us/product/68750?article=68750-B'
p239
aS'http://www.hm.com/us/product/56281?article=56281-B'
p240
aS'http://www.hm.com/us/product/63383?article=63383-H'
p241
aS'http://www.hm.com/us/product/02471?article=02471-G'
p242
aS'http://www.hm.com/us/product/64572?article=64572-E'
p243
aS'http://www.hm.com/us/product/69412?article=69412-A'
p244
aS'http://www.hm.com/us/product/43248?article=43248-G'
p245
aS'http://www.hm.com/us/product/70854?article=70854-A'
p246
aS'http://www.hm.com/us/product/66739?article=66739-B'
p247
aS'http://www.hm.com/us/product/49437?article=49437-A'
p248
aS'http://www.hm.com/us/product/66744?article=66744-F'
p249
aS'http://www.hm.com/us/product/66797?article=66797-A'
p250
aS'http://www.hm.com/us/product/35467?article=35467-C'
p251
aS'http://www.hm.com/us/product/68558?article=68558-C'
p252
aS'http://www.hm.com/us/product/65247?article=65247-A'
p253
aS'http://www.hm.com/us/product/61465?article=61465-A'
p254
aS'http://www.hm.com/us/product/09988?article=09988-B'
p255
aS'http://www.hm.com/us/product/46542?article=46542-A'
p256
aS'http://www.hm.com/us/product/68841?article=68841-A'
p257
aS'http://www.hm.com/us/product/45475?article=45475-A'
p258
aS'http://www.hm.com/us/product/57049?article=57049-A'
p259
aS'http://www.hm.com/us/product/46661?article=46661-A'
p260
aS'http://www.hm.com/us/product/48533?article=48533-A'
p261
aS'http://www.hm.com/us/product/56640?article=56640-D'
p262
aS'http://www.hm.com/us/product/59665?article=59665-A'
p263
aS'http://www.hm.com/us/product/63740?article=63740-E'
p264
aS'http://www.hm.com/us/product/64116?article=64116-B'
p265
aS'http://www.hm.com/us/product/48398?article=48398-N'
p266
aS'http://www.hm.com/us/product/66771?article=66771-A'
p267
aS'http://www.hm.com/us/product/64116?article=64116-D'
p268
aS'http://www.hm.com/us/product/87648?article=87648-D'
p269
aS'http://www.hm.com/us/product/61159?article=61159-I'
p270
aS'http://www.hm.com/us/product/59873?article=59873-H'
p271
aS'http://www.hm.com/us/product/74244?article=74244-A'
p272
aS'http://www.hm.com/us/product/62764?article=62764-G'
p273
aS'http://www.hm.com/us/product/44367?article=44367-E'
p274
aS'http://www.hm.com/us/product/66691?article=66691-F'
p275
aS'http://www.hm.com/us/product/02133?article=02133-B'
p276
aS'http://www.hm.com/us/product/69028?article=69028-A'
p277
aS'http://www.hm.com/us/product/69970?article=69970-B'
p278
aS'http://www.hm.com/us/product/67051?article=67051-A'
p279
aS'http://www.hm.com/us/product/63383?article=63383-I'
p280
aS'http://www.hm.com/us/product/69465?article=69465-B'
p281
aS'http://www.hm.com/us/product/47398?article=47398-A'
p282
aS'http://www.hm.com/us/product/00464?article=00464-B'
p283
aS'http://www.hm.com/us/product/63481?article=63481-A'
p284
aS'http://www.hm.com/us/product/64373?article=64373-A'
p285
aS'http://www.hm.com/us/product/61395?article=61395-B'
p286
aS'http://www.hm.com/us/product/64116?article=64116-N'
p287
aS'http://www.hm.com/us/product/68392?article=68392-A'
p288
aS'http://www.hm.com/us/product/44364?article=44364-A'
p289
aS'http://www.hm.com/us/product/56640?article=56640-B'
p290
aS'http://www.hm.com/us/product/53068?article=53068-I'
p291
aS'http://www.hm.com/us/product/63383?article=63383-F'
p292
aS'http://www.hm.com/us/product/44932?article=44932-A'
p293
aS'http://www.hm.com/us/product/66602?article=66602-A'
p294
aS'http://www.hm.com/us/product/63321?article=63321-B'
p295
aS'http://www.hm.com/us/product/64095?article=64095-D'
p296
aS'http://www.hm.com/us/product/89195?article=89195-F'
p297
aS'http://www.hm.com/us/product/49437?article=49437-C'
p298
aS'http://www.hm.com/us/product/61465?article=61465-B'
p299
aS'http://www.hm.com/us/product/48467?article=48467-B'
p300
aS'http://www.hm.com/us/product/65602?article=65602-A'
p301
aS'http://www.hm.com/us/product/68328?article=68328-A'
p302
aS'http://www.hm.com/us/product/63822?article=63822-B'
p303
aS'http://www.hm.com/us/product/49778?article=49778-D'
p304
aS'http://www.hm.com/us/product/49365?article=49365-B'
p305
aS'http://www.hm.com/us/product/97848?article=97848-L'
p306
aS'http://www.hm.com/us/product/66744?article=66744-E'
p307
aS'http://www.hm.com/us/product/58641?article=58641-A'
p308
aS'http://www.hm.com/us/product/61979?article=61979-E'
p309
aS'http://www.hm.com/us/product/65990?article=65990-A'
p310
aS'http://www.hm.com/us/product/39694?article=39694-L'
p311
aS'http://www.hm.com/us/product/66602?article=66602-B'
p312
aS'http://www.hm.com/us/product/82372?article=82372-C'
p313
aS'http://www.hm.com/us/product/66223?article=66223-C'
p314
aS'http://www.hm.com/us/product/69371?article=69371-H'
p315
aS'http://www.hm.com/us/product/69680?article=69680-A'
p316
aS'http://www.hm.com/us/product/61010?article=61010-A'
p317
aS'http://www.hm.com/us/product/64095?article=64095-E'
p318
aS'http://www.hm.com/us/product/68062?article=68062-B'
p319
aS'http://www.hm.com/us/product/70216?article=70216-E'
p320
aS'http://www.hm.com/us/product/68310?article=68310-C'
p321
aS'http://www.hm.com/us/product/39535?article=39535-C'
p322
aS'http://www.hm.com/us/product/68682?article=68682-A'
p323
aS'http://www.hm.com/us/product/44363?article=44363-A'
p324
aS'http://www.hm.com/us/product/66366?article=66366-A'
p325
aS'http://www.hm.com/us/product/68055?article=68055-A'
p326
aS'http://www.hm.com/us/product/48677?article=48677-Q'
p327
aS'http://www.hm.com/us/product/69007?article=69007-C'
p328
aS'http://www.hm.com/us/product/60725?article=60725-H'
p329
aS'http://www.hm.com/us/product/39469?article=39469-A'
p330
aS'http://www.hm.com/us/product/37621?article=37621-A'
p331
aS'http://www.hm.com/us/product/65655?article=65655-A'
p332
aS'http://www.hm.com/us/product/46954?article=46954-A'
p333
aS'http://www.hm.com/us/product/68041?article=68041-C'
p334
aS'http://www.hm.com/us/product/61979?article=61979-B'
p335
aS'http://www.hm.com/us/product/57816?article=57816-C'
p336
aS'http://www.hm.com/us/product/65792?article=65792-C'
p337
aS'http://www.hm.com/us/product/43834?article=43834-B'
p338
aS'http://www.hm.com/us/product/65718?article=65718-D'
p339
aS'http://www.hm.com/us/product/48256?article=48256-D'
p340
aS'http://www.hm.com/us/product/61515?article=61515-V'
p341
aS'http://www.hm.com/us/product/63628?article=63628-B'
p342
aS'http://www.hm.com/us/product/69570?article=69570-A'
p343
aS'http://www.hm.com/us/product/71241?article=71241-A'
p344
aS'http://www.hm.com/us/product/60595?article=60595-B'
p345
aS'http://www.hm.com/us/product/69257?article=69257-B'
p346
aS'http://www.hm.com/us/product/66792?article=66792-A'
p347
aS'http://www.hm.com/us/product/68841?article=68841-D'
p348
aS'http://www.hm.com/us/product/68487?article=68487-A'
p349
aS'http://www.hm.com/us/product/69787?article=69787-A'
p350
aS'http://www.hm.com/us/product/56640?article=56640-A'
p351
aS'http://www.hm.com/us/product/55588?article=55588-B'
p352
aS'http://www.hm.com/us/product/60725?article=60725-A'
p353
aS'http://www.hm.com/us/product/20605?article=20605-A'
p354
aS'http://www.hm.com/us/product/60224?article=60224-B'
p355
aS'http://www.hm.com/us/product/67145?article=67145-A'
p356
aS'http://www.hm.com/us/product/23942?article=23942-N'
p357
aS'http://www.hm.com/us/product/37580?article=37580-B'
p358
aS'http://www.hm.com/us/product/67392?article=67392-A'
p359
aS'http://www.hm.com/us/product/68028?article=68028-A'
p360
aS'http://www.hm.com/us/product/46954?article=46954-E'
p361
aS'http://www.hm.com/us/product/66754?article=66754-A'
p362
aS'http://www.hm.com/us/product/64095?article=64095-C'
p363
aS'http://www.hm.com/us/product/66763?article=66763-A'
p364
aS'http://www.hm.com/us/product/11667?article=11667-M'
p365
aS'http://www.hm.com/us/product/91028?article=91028-A'
p366
aS'http://www.hm.com/us/product/53068?article=53068-G'
p367
aS'http://www.hm.com/us/product/64646?article=64646-A'
p368
aS'http://www.hm.com/us/product/62259?article=62259-C'
p369
aS'http://www.hm.com/us/product/69371?article=69371-B'
p370
aS'http://www.hm.com/us/product/60190?article=60190-E'
p371
aS'http://www.hm.com/us/product/50075?article=50075-B'
p372
aS'http://www.hm.com/us/product/67362?article=67362-A'
p373
aS'http://www.hm.com/us/product/62748?article=62748-A'
p374
aS'http://www.hm.com/us/product/68854?article=68854-A'
p375
aS'http://www.hm.com/us/product/64116?article=64116-K'
p376
aS'http://www.hm.com/us/product/63740?article=63740-C'
p377
aS'http://www.hm.com/us/product/66223?article=66223-D'
p378
aS'http://www.hm.com/us/product/66583?article=66583-B'
p379
aS'http://www.hm.com/us/product/59206?article=59206-A'
p380
aS'http://www.hm.com/us/product/63383?article=63383-J'
p381
aS'http://www.hm.com/us/product/61153?article=61153-A'
p382
aS'http://www.hm.com/us/product/44367?article=44367-F'
p383
aS'http://www.hm.com/us/product/56640?article=56640-C'
p384
aS'http://www.hm.com/us/product/70050?article=70050-A'
p385
aS'http://www.hm.com/us/product/37908?article=37908-E'
p386
aS'http://www.hm.com/us/product/39920?article=39920-A'
p387
aS'http://www.hm.com/us/product/68558?article=68558-B'
p388
aS'http://www.hm.com/us/product/64596?article=64596-B'
p389
aS'http://www.hm.com/us/product/39919?article=39919-A'
p390
aS'http://www.hm.com/us/product/66203?article=66203-C'
p391
aS'http://www.hm.com/us/product/68392?article=68392-J'
p392
aS'http://www.hm.com/us/product/64603?article=64603-B'
p393
aS'http://www.hm.com/us/product/63822?article=63822-E'
p394
aS'http://www.hm.com/us/product/71858?article=71858-A'
p395
aS'http://www.hm.com/us/product/68416?article=68416-B'
p396
aS'http://www.hm.com/us/product/39655?article=39655-B'
p397
aS'http://www.hm.com/us/product/39535?article=39535-B'
p398
aS'http://www.hm.com/us/product/70563?article=70563-B'
p399
aS'http://www.hm.com/us/product/69394?article=69394-B'
p400
aS'http://www.hm.com/us/product/69306?article=69306-A'
p401
aS'http://www.hm.com/us/product/48677?article=48677-B'
p402
aS'http://www.hm.com/us/product/57692?article=57692-F'
p403
aS'http://www.hm.com/us/product/70069?article=70069-B'
p404
aS'http://www.hm.com/us/product/61891?article=61891-C'
p405
aS'http://www.hm.com/us/product/48212?article=48212-C'
p406
aS'http://www.hm.com/us/product/69257?article=69257-A'
p407
aS'http://www.hm.com/us/product/61961?article=61961-D'
p408
aS'http://www.hm.com/us/product/65903?article=65903-A'
p409
aS'http://www.hm.com/us/product/64572?article=64572-F'
p410
aS'http://www.hm.com/us/product/66878?article=66878-A'
p411
aS'http://www.hm.com/us/product/63822?article=63822-C'
p412
aS'http://www.hm.com/us/product/48684?article=48684-C'
p413
aS'http://www.hm.com/us/product/67362?article=67362-B'
p414
aS'http://www.hm.com/us/product/03469?article=03469-X'
p415
aS'http://www.hm.com/us/product/82813?article=82813-P'
p416
aS'http://www.hm.com/us/product/60190?article=60190-B'
p417
aS'http://www.hm.com/us/product/64678?article=64678-C'
p418
aS'http://www.hm.com/us/product/68431?article=68431-A'
p419
aS'http://www.hm.com/us/product/46248?article=46248-B'
p420
aS'http://www.hm.com/us/product/65712?article=65712-A'
p421
aS'http://www.hm.com/us/product/85040?article=85040-A'
p422
aS'http://www.hm.com/us/product/66471?article=66471-B'
p423
aS'http://www.hm.com/us/product/71858?article=71858-B'
p424
aS'http://www.hm.com/us/product/66203?article=66203-B'
p425
aS'http://www.hm.com/us/product/67900?article=67900-A'
p426
aS'http://www.hm.com/us/product/48726?article=48726-C'
p427
aS'http://www.hm.com/us/product/59873?article=59873-G'
p428
aS'http://www.hm.com/us/product/03469?article=03469-P'
p429
aS'http://www.hm.com/us/product/53472?article=53472-A'
p430
aS'http://www.hm.com/us/product/48677?article=48677-D'
p431
aS'http://www.hm.com/us/product/60576?article=60576-A'
p432
aS'http://www.hm.com/us/product/66223?article=66223-A'
p433
aS'http://www.hm.com/us/product/66364?article=66364-B'
p434
aS'http://www.hm.com/us/product/66691?article=66691-A'
p435
aS'http://www.hm.com/us/product/37908?article=37908-C'
p436
aS'http://www.hm.com/us/product/66744?article=66744-C'
p437
aS'http://www.hm.com/us/product/63383?article=63383-D'
p438
aS'http://www.hm.com/us/product/69229?article=69229-A'
p439
aS'http://www.hm.com/us/product/97302?article=97302-A'
p440
aS'http://www.hm.com/us/product/63360?article=63360-G'
p441
aS'http://www.hm.com/us/product/37580?article=37580-A'
p442
aS'http://www.hm.com/us/product/54524?article=54524-A'
p443
aS'http://www.hm.com/us/product/61515?article=61515-T'
p444
aS'http://www.hm.com/us/product/67865?article=67865-C'
p445
aS'http://www.hm.com/us/product/57692?article=57692-D'
p446
aS'http://www.hm.com/us/product/64603?article=64603-A'
p447
aS'http://www.hm.com/us/product/62451?article=62451-A'
p448
aS'http://www.hm.com/us/product/46466?article=46466-A'
p449
aS'http://www.hm.com/us/product/11667?article=11667-J'
p450
aS'http://www.hm.com/us/product/49036?article=49036-H'
p451
aS'http://www.hm.com/us/product/66739?article=66739-C'
p452
aS'http://www.hm.com/us/product/46435?article=46435-B'
p453
aS'http://www.hm.com/us/product/86302?article=86302-J'
p454
aS'http://www.hm.com/us/product/62705?article=62705-B'
p455
aS'http://www.hm.com/us/product/68740?article=68740-A'
p456
aS'http://www.hm.com/us/product/64523?article=64523-A'
p457
aS'http://www.hm.com/us/product/65654?article=65654-G'
p458
aS'http://www.hm.com/us/product/68798?article=68798-B'
p459
aS'http://www.hm.com/us/product/66744?article=66744-B'
p460
aS'http://www.hm.com/us/product/68310?article=68310-E'
p461
aS'http://www.hm.com/us/product/66583?article=66583-A'
p462
aS'http://www.hm.com/us/product/65719?article=65719-A'
p463
aS'http://www.hm.com/us/product/60954?article=60954-Q'
p464
aS'http://www.hm.com/us/product/41970?article=41970-B'
p465
aS'http://www.hm.com/us/product/64603?article=64603-C'
p466
aS'http://www.hm.com/us/product/68320?article=68320-A'
p467
aS'http://www.hm.com/us/product/60710?article=60710-L'
p468
aS'http://www.hm.com/us/product/65066?article=65066-D'
p469
aS'http://www.hm.com/us/product/66366?article=66366-B'
p470
aS'http://www.hm.com/us/product/68692?article=68692-A'
p471
aS'http://www.hm.com/us/product/47491?article=47491-B'
p472
aS'http://www.hm.com/us/product/66321?article=66321-H'
p473
aS'http://www.hm.com/us/product/67011?article=67011-A'
p474
aS'http://www.hm.com/us/product/23942?article=23942-J'
p475
aS'http://www.hm.com/us/product/60725?article=60725-G'
p476
aS'http://www.hm.com/us/product/69021?article=69021-B'
p477
aS'http://www.hm.com/us/product/68310?article=68310-A'
p478
aS'http://www.hm.com/us/product/61306?article=61306-A'
p479
aS'http://www.hm.com/us/product/68328?article=68328-B'
p480
aS'http://www.hm.com/us/product/60576?article=60576-F'
p481
aS'http://www.hm.com/us/product/70651?article=70651-A'
p482
aS'http://www.hm.com/us/product/70130?article=70130-A'
p483
aS'http://www.hm.com/us/product/64596?article=64596-A'
p484
aS'http://www.hm.com/us/product/61958?article=61958-D'
p485
aS'http://www.hm.com/us/product/68982?article=68982-B'
p486
aS'http://www.hm.com/us/product/38579?article=38579-A'
p487
aS'http://www.hm.com/us/product/69412?article=69412-B'
p488
aS'http://www.hm.com/us/product/58388?article=58388-E'
p489
aS'http://www.hm.com/us/product/50075?article=50075-A'
p490
aS'http://www.hm.com/us/product/68485?article=68485-A'
p491
aS'http://www.hm.com/us/product/65665?article=65665-E'
p492
aS'http://www.hm.com/us/product/67233?article=67233-A'
p493
aS'http://www.hm.com/us/product/68485?article=68485-B'
p494
aS'http://www.hm.com/us/product/62764?article=62764-D'
p495
aS'http://www.hm.com/us/product/69680?article=69680-B'
p496
aS'http://www.hm.com/us/product/65721?article=65721-A'
p497
aS'http://www.hm.com/us/product/49779?article=49779-Q'
p498
aS'http://www.hm.com/us/product/50236?article=50236-D'
p499
aS'http://www.hm.com/us/product/64523?article=64523-B'
p500
aS'http://www.hm.com/us/product/67855?article=67855-E'
p501
aS'http://www.hm.com/us/product/68328?article=68328-D'
p502
aS'http://www.hm.com/us/product/48633?article=48633-C'
p503
aS'http://www.hm.com/us/product/60710?article=60710-M'
p504
aS'http://www.hm.com/us/product/60442?article=60442-A'
p505
aS'http://www.hm.com/us/product/56824?article=56824-G'
p506
aS'http://www.hm.com/us/product/66427?article=66427-A'
p507
aS'http://www.hm.com/us/product/69021?article=69021-A'
p508
aS'http://www.hm.com/us/product/60905?article=60905-B'
p509
aS'http://www.hm.com/us/product/66475?article=66475-D'
p510
aS'http://www.hm.com/us/product/62259?article=62259-B'
p511
aS'http://www.hm.com/us/product/58091?article=58091-B'
p512
aS'http://www.hm.com/us/product/66691?article=66691-B'
p513
aS'http://www.hm.com/us/product/82813?article=82813-C'
p514
aS'http://www.hm.com/us/product/64646?article=64646-B'
p515
aS'http://www.hm.com/us/product/13904?article=13904-L'
p516
aS'http://www.hm.com/us/product/64771?article=64771-A'
p517
aS'http://www.hm.com/us/product/67900?article=67900-B'
p518
aS'http://www.hm.com/us/product/69050?article=69050-A'
p519
aS'http://www.hm.com/us/product/43716?article=43716-A'
p520
aS'http://www.hm.com/us/product/38131?article=38131-A'
p521
aS'http://www.hm.com/us/product/86302?article=86302-B'
p522
aS'http://www.hm.com/us/product/67592?article=67592-A'
p523
aS'http://www.hm.com/us/product/48995?article=48995-B'
p524
aS'http://www.hm.com/us/product/65654?article=65654-H'
p525
aS'http://www.hm.com/us/product/61464?article=61464-B'
p526
aS'http://www.hm.com/us/product/46435?article=46435-A'
p527
aS'http://www.hm.com/us/product/66169?article=66169-A'
p528
aS'http://www.hm.com/us/product/62797?article=62797-E'
p529
aS'http://www.hm.com/us/product/50357?article=50357-F'
p530
aS'http://www.hm.com/us/product/66471?article=66471-C'
p531
aS'http://www.hm.com/us/product/68494?article=68494-A'
p532
aS'http://www.hm.com/us/product/65884?article=65884-B'
p533
aS'http://www.hm.com/us/product/69458?article=69458-A'
p534
aS'http://www.hm.com/us/product/48684?article=48684-D'
p535
aS'http://www.hm.com/us/product/64278?article=64278-A'
p536
aS'http://www.hm.com/us/product/64494?article=64494-B'
p537
aS'http://www.hm.com/us/product/68213?article=68213-B'
p538
aS'http://www.hm.com/us/product/66002?article=66002-A'
p539
aS'http://www.hm.com/us/product/69007?article=69007-A'
p540
aS'http://www.hm.com/us/product/51558?article=51558-N'
p541
aS'http://www.hm.com/us/product/41969?article=41969-B'
p542
aS'http://www.hm.com/us/product/62049?article=62049-B'
p543
aS'http://www.hm.com/us/product/66094?article=66094-A'
p544
aS'http://www.hm.com/us/product/39469?article=39469-B'
p545
aS'http://www.hm.com/us/product/31007?article=31007-H'
p546
aS'http://www.hm.com/us/product/58265?article=58265-B'
p547
aS'http://www.hm.com/us/product/65250?article=65250-A'
p548
aS'http://www.hm.com/us/product/58641?article=58641-E'
p549
aS'http://www.hm.com/us/product/62591?article=62591-D'
p550
aS'http://www.hm.com/us/product/13902?article=13902-F'
p551
aS'http://www.hm.com/us/product/66765?article=66765-A'
p552
aS'http://www.hm.com/us/product/87648?article=87648-V'
p553
aS'http://www.hm.com/us/product/66203?article=66203-A'
p554
aS'http://www.hm.com/us/product/60905?article=60905-A'
p555
aS'http://www.hm.com/us/product/60197?article=60197-C'
p556
aS'http://www.hm.com/us/product/48398?article=48398-M'
p557
aS'http://www.hm.com/us/product/66878?article=66878-B'
p558
aS'http://www.hm.com/us/product/68381?article=68381-A'
p559
aS'http://www.hm.com/us/product/69378?article=69378-A'
p560
aS'http://www.hm.com/us/product/50455?article=50455-E'
p561
aS'http://www.hm.com/us/product/86302?article=86302-A'
p562
aS'http://www.hm.com/us/product/63793?article=63793-A'
p563
aS'http://www.hm.com/us/product/63539?article=63539-B'
p564
aS'http://www.hm.com/us/product/68747?article=68747-A'
p565
aS'http://www.hm.com/us/product/51594?article=51594-G'
p566
aS'http://www.hm.com/us/product/67090?article=67090-A'
p567
aS'http://www.hm.com/us/product/60242?article=60242-A'
p568
aS'http://www.hm.com/us/product/68042?article=68042-A'
p569
aS'http://www.hm.com/us/product/70312?article=70312-A'
p570
aS'http://www.hm.com/us/product/58641?article=58641-B'
p571
aS'http://www.hm.com/us/product/48633?article=48633-B'
p572
aS'http://www.hm.com/us/product/64360?article=64360-A'
p573
aS'http://www.hm.com/us/product/67661?article=67661-E'
p574
aS'http://www.hm.com/us/product/66188?article=66188-A'
p575
aS'http://www.hm.com/us/product/68150?article=68150-A'
p576
aS'http://www.hm.com/us/product/57990?article=57990-A'
p577
aS'http://www.hm.com/us/product/56824?article=56824-I'
p578
aS'http://www.hm.com/us/product/68554?article=68554-A'
p579
aS'http://www.hm.com/us/product/68505?article=68505-A'
p580
aS'http://www.hm.com/us/product/67086?article=67086-C'
p581
aS'http://www.hm.com/us/product/68611?article=68611-A'
p582
aS'http://www.hm.com/us/product/69016?article=69016-A'
p583
aS'http://www.hm.com/us/product/67855?article=67855-C'
p584
aS'http://www.hm.com/us/product/67661?article=67661-A'
p585
aS'http://www.hm.com/us/product/64323?article=64323-A'
p586
aS'http://www.hm.com/us/product/66188?article=66188-C'
p587
aS'http://www.hm.com/us/product/89195?article=89195-D'
p588
aS'http://www.hm.com/us/product/62591?article=62591-B'
p589
aS'http://www.hm.com/us/product/50058?article=50058-D'
p590
aS'http://www.hm.com/us/product/64646?article=64646-C'
p591
aS'http://www.hm.com/us/product/60954?article=60954-N'
p592
aS'http://www.hm.com/us/product/63539?article=63539-D'
p593
aS'http://www.hm.com/us/product/71849?article=71849-A'
p594
aS'http://www.hm.com/us/product/68758?article=68758-A'
p595
aS'http://www.hm.com/us/product/57990?article=57990-B'
p596
aS'http://www.hm.com/us/product/61013?article=61013-A'
p597
aS'http://www.hm.com/us/product/09988?article=09988-L'
p598
aS'http://www.hm.com/us/product/64027?article=64027-B'
p599
aS'http://www.hm.com/us/product/64494?article=64494-A'
p600
aS'http://www.hm.com/us/product/53029?article=53029-A'
p601
aS'http://www.hm.com/us/product/51558?article=51558-K'
p602
aS'http://www.hm.com/us/product/64572?article=64572-A'
p603
aS'http://www.hm.com/us/product/85433?article=85433-D'
p604
aS'http://www.hm.com/us/product/66655?article=66655-B'
p605
aS'http://www.hm.com/us/product/65249?article=65249-A'
p606
aS'http://www.hm.com/us/product/60954?article=60954-P'
p607
aS'http://www.hm.com/us/product/66790?article=66790-A'
p608
aS'http://www.hm.com/us/product/38420?article=38420-B'
p609
aS'http://www.hm.com/us/product/50357?article=50357-A'
p610
aS'http://www.hm.com/us/product/64038?article=64038-A'
p611
aS'http://www.hm.com/us/product/62341?article=62341-A'
p612
aS'http://www.hm.com/us/product/65884?article=65884-A'
p613
aS'http://www.hm.com/us/product/63939?article=63939-C'
p614
aS'http://www.hm.com/us/product/41970?article=41970-A'
p615
aS'http://www.hm.com/us/product/41829?article=41829-M'
p616
aS'http://www.hm.com/us/product/42198?article=42198-A'
p617
aS'http://www.hm.com/us/product/63125?article=63125-A'
p618
aS'http://www.hm.com/us/product/50058?article=50058-C'
p619
aS'http://www.hm.com/us/product/51291?article=51291-J'
p620
aS'http://www.hm.com/us/product/68558?article=68558-A'
p621
aS'http://www.hm.com/us/product/58446?article=58446-G'
p622
aS'http://www.hm.com/us/product/66609?article=66609-A'
p623
aS'http://www.hm.com/us/product/44289?article=44289-C'
p624
aS'http://www.hm.com/us/product/23942?article=23942-L'
p625
aS'http://www.hm.com/us/product/64323?article=64323-C'
p626
aS'http://www.hm.com/us/product/00464?article=00464-A'
p627
aS'http://www.hm.com/us/product/48087?article=48087-C'
p628
aS'http://www.hm.com/us/product/48087?article=48087-D'
p629
aS'http://www.hm.com/us/product/58626?article=58626-C'
p630
aS'http://www.hm.com/us/product/63793?article=63793-B'
p631
aS'http://www.hm.com/us/product/59230?article=59230-A'
p632
aS'http://www.hm.com/us/product/46114?article=46114-B'
p633
aS'http://www.hm.com/us/product/66182?article=66182-A'
p634
aS'http://www.hm.com/us/product/66094?article=66094-B'
p635
aS'http://www.hm.com/us/product/62047?article=62047-B'
p636
aS'http://www.hm.com/us/product/65997?article=65997-A'
p637
aS'http://www.hm.com/us/product/01915?article=01915-R'
p638
aS'http://www.hm.com/us/product/49778?article=49778-B'
p639
aS'http://www.hm.com/us/product/62747?article=62747-A'
p640
aS'http://www.hm.com/us/product/41969?article=41969-A'
p641
aS'http://www.hm.com/us/product/66188?article=66188-B'
p642
aS'http://www.hm.com/us/product/66172?article=66172-A'
p643
aS'http://www.hm.com/us/product/60190?article=60190-G'
p644
aS'http://www.hm.com/us/product/48633?article=48633-E'
p645
aS'http://www.hm.com/us/product/67019?article=67019-A'
p646
aS'http://www.hm.com/us/product/64315?article=64315-B'
p647
aS'http://www.hm.com/us/product/41829?article=41829-N'
p648
aS'http://www.hm.com/us/product/69020?article=69020-A'
p649
aS'http://www.hm.com/us/product/68692?article=68692-C'
p650
aS'http://www.hm.com/us/product/03469?article=03469-V'
p651
aS'http://www.hm.com/us/product/64656?article=64656-A'
p652
aS'http://www.hm.com/us/product/39177?article=39177-A'
p653
aS'http://www.hm.com/us/product/48189?article=48189-A'
p654
aS'http://www.hm.com/us/product/69136?article=69136-A'
p655
aS'http://www.hm.com/us/product/68746?article=68746-A'
p656
aS'http://www.hm.com/us/product/48206?article=48206-A'
p657
aS'http://www.hm.com/us/product/65654?article=65654-E'
p658
aS'http://www.hm.com/us/product/58446?article=58446-F'
p659
aS'http://www.hm.com/us/product/68692?article=68692-D'
p660
aS'http://www.hm.com/us/product/65066?article=65066-A'
p661
aS'http://www.hm.com/us/product/62782?article=62782-C'
p662
aS'http://www.hm.com/us/product/67723?article=67723-B'
p663
aS'http://www.hm.com/us/product/66086?article=66086-A'
p664
aS'http://www.hm.com/us/product/67620?article=67620-A'
p665
aS'http://www.hm.com/us/product/48633?article=48633-F'
p666
aS'http://www.hm.com/us/product/61966?article=61966-F'
p667
aS'http://www.hm.com/us/product/66129?article=66129-B'
p668
aS'http://www.hm.com/us/product/62399?article=62399-B'
p669
aS'http://www.hm.com/us/product/63813?article=63813-B'
p670
aS'http://www.hm.com/us/product/61515?article=61515-L'
p671
aS'http://www.hm.com/us/product/66331?article=66331-A'
p672
aS'http://www.hm.com/us/product/64507?article=64507-B'
p673
aS'http://www.hm.com/us/product/62797?article=62797-A'
p674
aS'http://www.hm.com/us/product/61719?article=61719-C'
p675
aS'http://www.hm.com/us/product/55588?article=55588-A'
p676
aS'http://www.hm.com/us/product/67879?article=67879-A'
p677
aS'http://www.hm.com/us/product/61966?article=61966-A'
p678
aS'http://www.hm.com/us/product/66539?article=66539-A'
p679
aS'http://www.hm.com/us/product/58574?article=58574-B'
p680
aS'http://www.hm.com/us/product/40951?article=40951-D'
p681
aS'http://www.hm.com/us/product/61891?article=61891-B'
p682
aS'http://www.hm.com/us/product/49778?article=49778-C'
p683
aS'http://www.hm.com/us/product/67104?article=67104-B'
p684
aS'http://www.hm.com/us/product/13902?article=13902-H'
p685
aS'http://www.hm.com/us/product/67835?article=67835-B'
p686
aS'http://www.hm.com/us/product/48254?article=48254-A'
p687
aS'http://www.hm.com/us/product/72911?article=72911-A'
p688
aS'http://www.hm.com/us/product/63923?article=63923-A'
p689
aS'http://www.hm.com/us/product/68061?article=68061-A'
p690
aS'http://www.hm.com/us/product/59135?article=59135-B'
p691
aS'http://www.hm.com/us/product/43834?article=43834-A'
p692
aS'http://www.hm.com/us/product/67813?article=67813-A'
p693
aS'http://www.hm.com/us/product/68406?article=68406-B'
p694
aS'http://www.hm.com/us/product/67865?article=67865-A'
p695
aS'http://www.hm.com/us/product/66655?article=66655-A'
p696
aS'http://www.hm.com/us/product/46954?article=46954-B'
p697
aS'http://www.hm.com/us/product/45121?article=45121-A'
p698
aS'http://www.hm.com/us/product/82372?article=82372-G'
p699
aS'http://www.hm.com/us/product/62049?article=62049-A'
p700
aS'http://www.hm.com/us/product/68841?article=68841-B'
p701
aS'http://www.hm.com/us/product/69010?article=69010-E'
p702
aS'http://www.hm.com/us/product/67167?article=67167-A'
p703
aS'http://www.hm.com/us/product/60774?article=60774-A'
p704
aS'http://www.hm.com/us/product/64597?article=64597-A'
p705
aS'http://www.hm.com/us/product/48597?article=48597-J'
p706
aS'http://www.hm.com/us/product/61961?article=61961-A'
p707
aS'http://www.hm.com/us/product/66590?article=66590-A'
p708
aS'http://www.hm.com/us/product/64576?article=64576-A'
p709
aS'http://www.hm.com/us/product/61966?article=61966-C'
p710
aS'http://www.hm.com/us/product/62358?article=62358-A'
p711
aS'http://www.hm.com/us/product/39542?article=39542-A'
p712
aS'http://www.hm.com/us/product/61639?article=61639-C'
p713
aS'http://www.hm.com/us/product/63961?article=63961-B'
p714
aS'http://www.hm.com/us/product/47398?article=47398-C'
p715
aS'http://www.hm.com/us/product/67461?article=67461-A'
p716
aS'http://www.hm.com/us/product/34422?article=34422-P'
p717
aS'http://www.hm.com/us/product/69010?article=69010-D'
p718
aS'http://www.hm.com/us/product/64665?article=64665-A'
p719
aS'http://www.hm.com/us/product/34449?article=34449-B'
p720
aS'http://www.hm.com/us/product/67592?article=67592-C'
p721
aS'http://www.hm.com/us/product/69371?article=69371-A'
p722
aS'http://www.hm.com/us/product/62722?article=62722-A'
p723
aS'http://www.hm.com/us/product/61758?article=61758-A'
p724
aS'http://www.hm.com/us/product/48995?article=48995-A'
p725
aS'http://www.hm.com/us/product/64323?article=64323-B'
p726
aS'http://www.hm.com/us/product/66722?article=66722-A'
p727
aS'http://www.hm.com/us/product/67165?article=67165-A'
p728
aS'http://www.hm.com/us/product/48956?article=48956-G'
p729
aS'http://www.hm.com/us/product/70563?article=70563-A'
p730
aS'http://www.hm.com/us/product/48597?article=48597-H'
p731
aS'http://www.hm.com/us/product/60710?article=60710-F'
p732
aS'http://www.hm.com/us/product/02134?article=02134-A'
p733
aS'http://www.hm.com/us/product/59753?article=59753-A'
p734
aS'http://www.hm.com/us/product/68485?article=68485-C'
p735
aS'http://www.hm.com/us/product/66539?article=66539-B'
p736
aS'http://www.hm.com/us/product/49719?article=49719-A'
p737
aS'http://www.hm.com/us/product/51291?article=51291-E'
p738
aS'http://www.hm.com/us/product/39181?article=39181-C'
p739
aS'http://www.hm.com/us/product/61966?article=61966-G'
p740
aS'http://www.hm.com/us/product/52023?article=52023-A'
p741
aS'http://www.hm.com/us/product/63871?article=63871-A'
p742
aS'http://www.hm.com/us/product/68617?article=68617-A'
p743
aS'http://www.hm.com/us/product/48254?article=48254-E'
p744
aS'http://www.hm.com/us/product/61830?article=61830-C'
p745
aS'http://www.hm.com/us/product/48535?article=48535-A'
p746
aS'http://www.hm.com/us/product/67723?article=67723-A'
p747
aS'http://www.hm.com/us/product/38137?article=38137-C'
p748
aS'http://www.hm.com/us/product/68154?article=68154-A'
p749
aS'http://www.hm.com/us/product/47766?article=47766-F'
p750
aS'http://www.hm.com/us/product/50357?article=50357-C'
p751
aS'http://www.hm.com/us/product/49779?article=49779-M'
p752
aS'http://www.hm.com/us/product/48110?article=48110-C'
p753
aS'http://www.hm.com/us/product/65400?article=65400-A'
p754
aS'http://www.hm.com/us/product/66321?article=66321-E'
p755
aS'http://www.hm.com/us/product/44289?article=44289-B'
p756
aS'http://www.hm.com/us/product/82813?article=82813-B'
p757
aS'http://www.hm.com/us/product/67872?article=67872-A'
p758
aS'http://www.hm.com/us/product/68223?article=68223-A'
p759
aS'http://www.hm.com/us/product/53029?article=53029-H'
p760
aS'http://www.hm.com/us/product/62358?article=62358-B'
p761
aS'http://www.hm.com/us/product/59387?article=59387-A'
p762
aS'http://www.hm.com/us/product/72361?article=72361-A'
p763
aS'http://www.hm.com/us/product/66321?article=66321-D'
p764
aS'http://www.hm.com/us/product/56824?article=56824-H'
p765
aS'http://www.hm.com/us/product/48467?article=48467-H'
p766
aS'http://www.hm.com/us/product/68692?article=68692-B'
p767
aS'http://www.hm.com/us/product/64576?article=64576-B'
p768
aS'http://www.hm.com/us/product/49442?article=49442-C'
p769
aS'http://www.hm.com/us/product/67933?article=67933-A'
p770
aS'http://www.hm.com/us/product/60576?article=60576-B'
p771
aS'http://www.hm.com/us/product/62361?article=62361-B'
p772
aS'http://www.hm.com/us/product/46528?article=46528-B'
p773
aS'http://www.hm.com/us/product/70069?article=70069-A'
p774
aS'http://www.hm.com/us/product/38420?article=38420-C'
p775
aS'http://www.hm.com/us/product/68067?article=68067-B'
p776
aS'http://www.hm.com/us/product/64509?article=64509-B'
p777
aS'http://www.hm.com/us/product/70042?article=70042-B'
p778
aS'http://www.hm.com/us/product/13904?article=13904-K'
p779
aS'http://www.hm.com/us/product/43770?article=43770-A'
p780
aS'http://www.hm.com/us/product/70630?article=70630-A'
p781
aS'http://www.hm.com/us/product/68708?article=68708-A'
p782
aS'http://www.hm.com/us/product/62708?article=62708-A'
p783
aS'http://www.hm.com/us/product/62034?article=62034-A'
p784
aS'http://www.hm.com/us/product/66055?article=66055-B'
p785
aS'http://www.hm.com/us/product/66995?article=66995-A'
p786
aS'http://www.hm.com/us/product/64632?article=64632-A'
p787
aS'http://www.hm.com/us/product/66073?article=66073-A'
p788
aS'http://www.hm.com/us/product/65697?article=65697-A'
p789
aS'http://www.hm.com/us/product/65186?article=65186-C'
p790
aS'http://www.hm.com/us/product/60596?article=60596-B'
p791
aS'http://www.hm.com/us/product/69683?article=69683-A'
p792
aS'http://www.hm.com/us/product/66002?article=66002-B'
p793
aS'http://www.hm.com/us/product/66475?article=66475-E'
p794
aS'http://www.hm.com/us/product/65665?article=65665-D'
p795
aS'http://www.hm.com/us/product/64315?article=64315-A'
p796
aS'http://www.hm.com/us/product/44932?article=44932-E'
p797
aS'http://www.hm.com/us/product/48677?article=48677-M'
p798
aS'http://www.hm.com/us/product/68406?article=68406-A'
p799
aS'http://www.hm.com/us/product/68324?article=68324-A'
p800
aS'http://www.hm.com/us/product/52894?article=52894-A'
p801
aS'http://www.hm.com/us/product/38330?article=38330-A'
p802
aS'http://www.hm.com/us/product/51594?article=51594-F'
p803
aS'http://www.hm.com/us/product/65295?article=65295-A'
p804
aS'http://www.hm.com/us/product/48597?article=48597-I'
p805
aS'http://www.hm.com/us/product/67466?article=67466-D'
p806
aS'http://www.hm.com/us/product/67209?article=67209-A'
p807
aS'http://www.hm.com/us/product/65172?article=65172-C'
p808
aS'http://www.hm.com/us/product/66039?article=66039-A'
p809
aS'http://www.hm.com/us/product/70283?article=70283-A'
p810
aS'http://www.hm.com/us/product/64308?article=64308-D'
p811
aS'http://www.hm.com/us/product/66179?article=66179-A'
p812
aS'http://www.hm.com/us/product/67696?article=67696-A'
p813
aS'http://www.hm.com/us/product/52282?article=52282-D'
p814
aS'http://www.hm.com/us/product/67661?article=67661-C'
p815
aS'http://www.hm.com/us/product/48641?article=48641-E'
p816
aS'http://www.hm.com/us/product/66983?article=66983-B'
p817
aS'http://www.hm.com/us/product/60161?article=60161-B'
p818
aS'http://www.hm.com/us/product/68556?article=68556-B'
p819
aS'http://www.hm.com/us/product/44932?article=44932-B'
p820
aS'http://www.hm.com/us/product/62361?article=62361-A'
p821
aS'http://www.hm.com/us/product/64458?article=64458-A'
p822
aS'http://www.hm.com/us/product/60865?article=60865-C'
p823
aS'http://www.hm.com/us/product/47719?article=47719-F'
p824
aS'http://www.hm.com/us/product/53685?article=53685-D'
p825
aS'http://www.hm.com/us/product/57692?article=57692-B'
p826
aS'http://www.hm.com/us/product/65665?article=65665-B'
p827
aS'http://www.hm.com/us/product/97302?article=97302-H'
p828
aS'http://www.hm.com/us/product/49486?article=49486-E'
p829
aS'http://www.hm.com/us/product/60615?article=60615-E'
p830
aS'http://www.hm.com/us/product/34449?article=34449-A'
p831
aS'http://www.hm.com/us/product/39177?article=39177-C'
p832
aS'http://www.hm.com/us/product/48597?article=48597-K'
p833
aS'http://www.hm.com/us/product/64186?article=64186-A'
p834
aS'http://www.hm.com/us/product/67040?article=67040-A'
p835
aS'http://www.hm.com/us/product/37908?article=37908-F'
p836
aS'http://www.hm.com/us/product/66364?article=66364-A'
p837
aS'http://www.hm.com/us/product/68123?article=68123-A'
p838
aS'http://www.hm.com/us/product/64308?article=64308-A'
p839
aS'http://www.hm.com/us/product/50896?article=50896-L'
p840
aS'http://www.hm.com/us/product/67961?article=67961-A'
p841
aS'http://www.hm.com/us/product/68416?article=68416-A'
p842
aS'http://www.hm.com/us/product/68310?article=68310-D'
p843
aS'http://www.hm.com/us/product/69077?article=69077-A'
p844
aS'http://www.hm.com/us/product/46177?article=46177-D'
p845
aS'http://www.hm.com/us/product/67329?article=67329-A'
p846
aS'http://www.hm.com/us/product/63690?article=63690-B'
p847
aS'http://www.hm.com/us/product/40345?article=40345-K'
p848
aS'http://www.hm.com/us/product/62366?article=62366-A'
p849
aS'http://www.hm.com/us/product/68611?article=68611-B'
p850
aS'http://www.hm.com/us/product/37908?article=37908-G'
p851
aS'http://www.hm.com/us/product/67182?article=67182-B'
p852
aS'http://www.hm.com/us/product/49879?article=49879-A'
p853
aS'http://www.hm.com/us/product/58350?article=58350-A'
p854
aS'http://www.hm.com/us/product/67900?article=67900-C'
p855
aS'http://www.hm.com/us/product/61923?article=61923-A'
p856
aS'http://www.hm.com/us/product/64129?article=64129-A'
p857
aS'http://www.hm.com/us/product/46177?article=46177-A'
p858
aS'http://www.hm.com/us/product/63862?article=63862-A'
p859
aS'http://www.hm.com/us/product/65513?article=65513-C'
p860
aS'http://www.hm.com/us/product/68260?article=68260-A'
p861
aS'http://www.hm.com/us/product/60792?article=60792-D'
p862
aS'http://www.hm.com/us/product/39177?article=39177-B'
p863
aS'http://www.hm.com/us/product/67613?article=67613-A'
p864
aS'http://www.hm.com/us/product/29578?article=29578-I'
p865
aS'http://www.hm.com/us/product/38901?article=38901-A'
p866
aS'http://www.hm.com/us/product/65997?article=65997-B'
p867
aS'http://www.hm.com/us/product/60640?article=60640-A'
p868
aS'http://www.hm.com/us/product/59946?article=59946-A'
p869
aS'http://www.hm.com/us/product/68111?article=68111-B'
p870
aS'http://www.hm.com/us/product/47719?article=47719-I'
p871
aS'http://www.hm.com/us/product/40805?article=40805-F'
p872
aS'http://www.hm.com/us/product/53714?article=53714-A'
p873
aS'http://www.hm.com/us/product/65416?article=65416-A'
p874
aS'http://www.hm.com/us/product/58409?article=58409-C'
p875
aS'http://www.hm.com/us/product/67076?article=67076-A'
p876
aS'http://www.hm.com/us/product/60954?article=60954-F'
p877
aS'http://www.hm.com/us/product/63709?article=63709-A'
p878
aS'http://www.hm.com/us/product/59734?article=59734-A'
p879
aS'http://www.hm.com/us/product/40831?article=40831-B'
p880
aS'http://www.hm.com/us/product/67040?article=67040-B'
p881
aS'http://www.hm.com/us/product/67231?article=67231-D'
p882
aS'http://www.hm.com/us/product/60821?article=60821-A'
p883
aS'http://www.hm.com/us/product/65654?article=65654-B'
p884
aS'http://www.hm.com/us/product/48212?article=48212-F'
p885
aS'http://www.hm.com/us/product/65967?article=65967-B'
p886
aS'http://www.hm.com/us/product/70749?article=70749-A'
p887
aS'http://www.hm.com/us/product/70748?article=70748-A'
p888
aS'http://www.hm.com/us/product/52023?article=52023-B'
p889
aS'http://www.hm.com/us/product/67784?article=67784-A'
p890
aS'http://www.hm.com/us/product/43770?article=43770-B'
p891
aS'http://www.hm.com/us/product/44186?article=44186-A'
p892
aS'http://www.hm.com/us/product/64405?article=64405-A'
p893
aS'http://www.hm.com/us/product/60616?article=60616-B'
p894
aS'http://www.hm.com/us/product/68213?article=68213-A'
p895
aS'http://www.hm.com/us/product/67057?article=67057-B'
p896
aS'http://www.hm.com/us/product/71844?article=71844-A'
p897
aS'http://www.hm.com/us/product/48641?article=48641-D'
p898
aS'http://www.hm.com/us/product/62365?article=62365-A'
p899
aS'http://www.hm.com/us/product/40951?article=40951-J'
p900
aS'http://www.hm.com/us/product/68837?article=68837-B'
p901
aS'http://www.hm.com/us/product/65311?article=65311-A'
p902
aS'http://www.hm.com/us/product/60821?article=60821-B'
p903
aS'http://www.hm.com/us/product/67689?article=67689-B'
p904
aS'http://www.hm.com/us/product/59552?article=59552-A'
p905
aS'http://www.hm.com/us/product/65967?article=65967-A'
p906
aS'http://www.hm.com/us/product/67858?article=67858-A'
p907
aS'http://www.hm.com/us/product/49437?article=49437-B'
p908
aS'http://www.hm.com/us/product/70721?article=70721-B'
p909
aS'http://www.hm.com/us/product/64832?article=64832-B'
p910
aS'http://www.hm.com/us/product/67962?article=67962-A'
p911
aS'http://www.hm.com/us/product/49916?article=49916-D'
p912
aS'http://www.hm.com/us/product/64465?article=64465-A'
p913
aS'http://www.hm.com/us/product/65314?article=65314-C'
p914
aS'http://www.hm.com/us/product/38298?article=38298-T'
p915
aS'http://www.hm.com/us/product/60710?article=60710-E'
p916
aS'http://www.hm.com/us/product/64509?article=64509-A'
p917
aS'http://www.hm.com/us/product/62367?article=62367-B'
p918
aS'http://www.hm.com/us/product/68983?article=68983-A'
p919
aS'http://www.hm.com/us/product/62359?article=62359-C'
p920
aS'http://www.hm.com/us/product/50064?article=50064-C'
p921
aS'http://www.hm.com/us/product/54209?article=54209-A'
p922
aS'http://www.hm.com/us/product/46876?article=46876-B'
p923
aS'http://www.hm.com/us/product/66523?article=66523-B'
p924
aS'http://www.hm.com/us/product/70645?article=70645-A'
p925
aS'http://www.hm.com/us/product/67639?article=67639-A'
p926
aS'http://www.hm.com/us/product/64597?article=64597-B'
p927
aS'http://www.hm.com/us/product/86626?article=86626-H'
p928
aS'http://www.hm.com/us/product/64832?article=64832-C'
p929
aS'http://www.hm.com/us/product/61492?article=61492-A'
p930
aS'http://www.hm.com/us/product/45609?article=45609-A'
p931
aS'http://www.hm.com/us/product/64765?article=64765-B'
p932
aS'http://www.hm.com/us/product/02134?article=02134-D'
p933
aS'http://www.hm.com/us/product/67723?article=67723-C'
p934
aS'http://www.hm.com/us/product/66058?article=66058-B'
p935
aS'http://www.hm.com/us/product/67639?article=67639-B'
p936
aS'http://www.hm.com/us/product/46177?article=46177-F'
p937
aS'http://www.hm.com/us/product/51291?article=51291-H'
p938
aS'http://www.hm.com/us/product/65513?article=65513-G'
p939
aS'http://www.hm.com/us/product/67608?article=67608-A'
p940
aS'http://www.hm.com/us/product/65904?article=65904-A'
p941
aS'http://www.hm.com/us/product/66610?article=66610-B'
p942
aS'http://www.hm.com/us/product/41042?article=41042-G'
p943
aS'http://www.hm.com/us/product/50896?article=50896-N'
p944
aS'http://www.hm.com/us/product/65408?article=65408-A'
p945
aS'http://www.hm.com/us/product/57692?article=57692-C'
p946
aS'http://www.hm.com/us/product/66470?article=66470-A'
p947
aS'http://www.hm.com/us/product/62367?article=62367-A'
p948
aS'http://www.hm.com/us/product/46022?article=46022-D'
p949
aS'http://www.hm.com/us/product/68011?article=68011-A'
p950
aS'http://www.hm.com/us/product/69307?article=69307-A'
p951
aS'http://www.hm.com/us/product/67218?article=67218-A'
p952
aS'http://www.hm.com/us/product/69192?article=69192-A'
p953
aS'http://www.hm.com/us/product/59487?article=59487-C'
p954
aS'http://www.hm.com/us/product/66365?article=66365-A'
p955
aS'http://www.hm.com/us/product/70016?article=70016-A'
p956
aS'http://www.hm.com/us/product/64496?article=64496-A'
p957
aS'http://www.hm.com/us/product/48212?article=48212-G'
p958
aS'http://www.hm.com/us/product/67872?article=67872-B'
p959
aS'http://www.hm.com/us/product/62705?article=62705-A'
p960
aS'http://www.hm.com/us/product/48212?article=48212-E'
p961
aS'http://www.hm.com/us/product/40306?article=40306-A'
p962
aS'http://www.hm.com/us/product/65186?article=65186-A'
p963
aS'http://www.hm.com/us/product/69077?article=69077-B'
p964
aS'http://www.hm.com/us/product/61766?article=61766-A'
p965
aS'http://www.hm.com/us/product/66406?article=66406-A'
p966
aS'http://www.hm.com/us/product/55827?article=55827-A'
p967
aS'http://www.hm.com/us/product/67002?article=67002-A'
p968
aS'http://www.hm.com/us/product/62624?article=62624-B'
p969
aS'http://www.hm.com/us/product/66075?article=66075-A'
p970
aS'http://www.hm.com/us/product/46528?article=46528-C'
p971
aS'http://www.hm.com/us/product/64812?article=64812-B'
p972
aS'http://www.hm.com/us/product/59425?article=59425-A'
p973
aS'http://www.hm.com/us/product/64618?article=64618-A'
p974
aS'http://www.hm.com/us/product/48279?article=48279-C'
p975
aS'http://www.hm.com/us/product/60766?article=60766-B'
p976
aS'http://www.hm.com/us/product/64650?article=64650-A'
p977
aS'http://www.hm.com/us/product/69015?article=69015-A'
p978
aS'http://www.hm.com/us/product/70417?article=70417-A'
p979
aS'http://www.hm.com/us/product/68169?article=68169-A'
p980
aS'http://www.hm.com/us/product/67679?article=67679-A'
p981
aS'http://www.hm.com/us/product/59456?article=59456-C'
p982
aS'http://www.hm.com/us/product/57766?article=57766-A'
p983
aS'http://www.hm.com/us/product/40345?article=40345-L'
p984
aS'http://www.hm.com/us/product/61013?article=61013-B'
p985
aS'http://www.hm.com/us/product/67502?article=67502-A'
p986
aS'http://www.hm.com/us/product/60871?article=60871-D'
p987
aS'http://www.hm.com/us/product/52586?article=52586-A'
p988
aS'http://www.hm.com/us/product/66961?article=66961-A'
p989
aS'http://www.hm.com/us/product/64706?article=64706-A'
p990
aS'http://www.hm.com/us/product/66321?article=66321-G'
p991
aS'http://www.hm.com/us/product/70042?article=70042-A'
p992
aS'http://www.hm.com/us/product/60576?article=60576-H'
p993
aS'http://www.hm.com/us/product/49915?article=49915-E'
p994
aS'http://www.hm.com/us/product/67231?article=67231-C'
p995
aS'http://www.hm.com/us/product/68230?article=68230-A'
p996
aS'http://www.hm.com/us/product/67502?article=67502-B'
p997
aS'http://www.hm.com/us/product/50896?article=50896-Q'
p998
aS'http://www.hm.com/us/product/65674?article=65674-A'
p999
aS'http://www.hm.com/us/product/57816?article=57816-D'
p1000
aS'http://www.hm.com/us/product/63778?article=63778-A'
p1001
aS'http://www.hm.com/us/product/63871?article=63871-B'
p1002
aS'http://www.hm.com/us/product/64841?article=64841-C'
p1003
aS'http://www.hm.com/us/product/64457?article=64457-J'
p1004
aS'http://www.hm.com/us/product/67466?article=67466-B'
p1005
aS'http://www.hm.com/us/product/67104?article=67104-A'
p1006
aS'http://www.hm.com/us/product/57692?article=57692-E'
p1007
aS'http://www.hm.com/us/product/68449?article=68449-B'
p1008
aS'http://www.hm.com/us/product/64812?article=64812-A'
p1009
aS'http://www.hm.com/us/product/47719?article=47719-J'
p1010
aS'http://www.hm.com/us/product/51291?article=51291-K'
p1011
aS'http://www.hm.com/us/product/38600?article=38600-A'
p1012
aS'http://www.hm.com/us/product/66394?article=66394-A'
p1013
aS'http://www.hm.com/us/product/67811?article=67811-A'
p1014
aS'http://www.hm.com/us/product/64604?article=64604-A'
p1015
aS'http://www.hm.com/us/product/46114?article=46114-D'
p1016
aS'http://www.hm.com/us/product/68789?article=68789-A'
p1017
aS'http://www.hm.com/us/product/58579?article=58579-B'
p1018
aS'http://www.hm.com/us/product/60879?article=60879-A'
p1019
aS'http://www.hm.com/us/product/40951?article=40951-I'
p1020
aS'http://www.hm.com/us/product/68477?article=68477-C'
p1021
aS'http://www.hm.com/us/product/56592?article=56592-B'
p1022
aS'http://www.hm.com/us/product/72194?article=72194-A'
p1023
aS'http://www.hm.com/us/product/69632?article=69632-B'
p1024
aS'http://www.hm.com/us/product/59806?article=59806-D'
p1025
aS'http://www.hm.com/us/product/69802?article=69802-B'
p1026
aS'http://www.hm.com/us/product/67719?article=67719-A'
p1027
aS'http://www.hm.com/us/product/31007?article=31007-I'
p1028
aS'http://www.hm.com/us/product/63704?article=63704-A'
p1029
aS'http://www.hm.com/us/product/66710?article=66710-B'
p1030
aS'http://www.hm.com/us/product/65311?article=65311-B'
p1031
aS'http://www.hm.com/us/product/68270?article=68270-A'
p1032
aS'http://www.hm.com/us/product/37580?article=37580-F'
p1033
aS'http://www.hm.com/us/product/65344?article=65344-A'
p1034
aS'http://www.hm.com/us/product/68138?article=68138-A'
p1035
aS'http://www.hm.com/us/product/67779?article=67779-A'
p1036
aS'http://www.hm.com/us/product/66722?article=66722-B'
p1037
aS'http://www.hm.com/us/product/67429?article=67429-A'
p1038
aS'http://www.hm.com/us/product/62388?article=62388-A'
p1039
aS'http://www.hm.com/us/product/60615?article=60615-C'
p1040
aS'http://www.hm.com/us/product/46247?article=46247-B'
p1041
aS'http://www.hm.com/us/product/60905?article=60905-C'
p1042
aS'http://www.hm.com/us/product/67432?article=67432-A'
p1043
aS'http://www.hm.com/us/product/70721?article=70721-A'
p1044
aS'http://www.hm.com/us/product/52146?article=52146-F'
p1045
aS'http://www.hm.com/us/product/63492?article=63492-A'
p1046
aS'http://www.hm.com/us/product/65945?article=65945-A'
p1047
aS'http://www.hm.com/us/product/68494?article=68494-B'
p1048
aS'http://www.hm.com/us/product/66775?article=66775-A'
p1049
aS'http://www.hm.com/us/product/65348?article=65348-A'
p1050
aS'http://www.hm.com/us/product/70385?article=70385-A'
p1051
aS'http://www.hm.com/us/product/69852?article=69852-A'
p1052
aS'http://www.hm.com/us/product/65096?article=65096-A'
p1053
aS'http://www.hm.com/us/product/63053?article=63053-A'
p1054
aS'http://www.hm.com/us/product/41042?article=41042-F'
p1055
aS'http://www.hm.com/us/product/55560?article=55560-A'
p1056
aS'http://www.hm.com/us/product/86626?article=86626-G'
p1057
aS'http://www.hm.com/us/product/61656?article=61656-B'
p1058
aS'http://www.hm.com/us/product/66554?article=66554-A'
p1059
aS'http://www.hm.com/us/product/68556?article=68556-E'
p1060
aS'http://www.hm.com/us/product/65740?article=65740-A'
p1061
aS'http://www.hm.com/us/product/62360?article=62360-B'
p1062
aS'http://www.hm.com/us/product/61174?article=61174-A'
p1063
aS'http://www.hm.com/us/product/66318?article=66318-A'
p1064
aS'http://www.hm.com/us/product/60598?article=60598-A'
p1065
aS'http://www.hm.com/us/product/68142?article=68142-A'
p1066
aS'http://www.hm.com/us/product/49454?article=49454-A'
p1067
aS'http://www.hm.com/us/product/61487?article=61487-A'
p1068
aS'http://www.hm.com/us/product/68102?article=68102-A'
p1069
aS'http://www.hm.com/us/product/62078?article=62078-B'
p1070
aS'http://www.hm.com/us/product/44861?article=44861-F'
p1071
aS'http://www.hm.com/us/product/65837?article=65837-A'
p1072
aS'http://www.hm.com/us/product/56687?article=56687-B'
p1073
aS'http://www.hm.com/us/product/62705?article=62705-C'
p1074
aS'http://www.hm.com/us/product/67802?article=67802-A'
p1075
aS'http://www.hm.com/us/product/46127?article=46127-D'
p1076
aS'http://www.hm.com/us/product/40345?article=40345-I'
p1077
aS'http://www.hm.com/us/product/59456?article=59456-E'
p1078
aS'http://www.hm.com/us/product/68625?article=68625-A'
p1079
aS'http://www.hm.com/us/product/97302?article=97302-F'
p1080
aS'http://www.hm.com/us/product/64509?article=64509-C'
p1081
aS'http://www.hm.com/us/product/69877?article=69877-A'
p1082
aS'http://www.hm.com/us/product/64232?article=64232-A'
p1083
aS'http://www.hm.com/us/product/62687?article=62687-A'
p1084
aS'http://www.hm.com/us/product/65628?article=65628-A'
p1085
aS'http://www.hm.com/us/product/67443?article=67443-B'
p1086
aS'http://www.hm.com/us/product/64765?article=64765-D'
p1087
aS'http://www.hm.com/us/product/53856?article=53856-A'
p1088
aS'http://www.hm.com/us/product/53326?article=53326-E'
p1089
aS'http://www.hm.com/us/product/51291?article=51291-G'
p1090
aS'http://www.hm.com/us/product/68172?article=68172-A'
p1091
aS'http://www.hm.com/us/product/64991?article=64991-A'
p1092
aS'http://www.hm.com/us/product/65623?article=65623-A'
p1093
aS'http://www.hm.com/us/product/64984?article=64984-A'
p1094
aS'http://www.hm.com/us/product/66245?article=66245-A'
p1095
aS'http://www.hm.com/us/product/66243?article=66243-A'
p1096
aS'http://www.hm.com/us/product/63601?article=63601-A'
p1097
aS'http://www.hm.com/us/product/64765?article=64765-F'
p1098
aS'http://www.hm.com/us/product/38600?article=38600-U'
p1099
aS'http://www.hm.com/us/product/60871?article=60871-B'
p1100
aS'http://www.hm.com/us/product/86968?article=86968-V'
p1101
aS'http://www.hm.com/us/product/61389?article=61389-C'
p1102
aS'http://www.hm.com/us/product/67806?article=67806-A'
p1103
aS'http://www.hm.com/us/product/61413?article=61413-C'
p1104
aS'http://www.hm.com/us/product/67962?article=67962-B'
p1105
aS'http://www.hm.com/us/product/13902?article=13902-I'
p1106
aS'http://www.hm.com/us/product/66952?article=66952-A'
p1107
aS'http://www.hm.com/us/product/66969?article=66969-C'
p1108
aS'http://www.hm.com/us/product/67718?article=67718-A'
p1109
aS'http://www.hm.com/us/product/65628?article=65628-B'
p1110
aS'http://www.hm.com/us/product/68440?article=68440-B'
p1111
aS'http://www.hm.com/us/product/64499?article=64499-A'
p1112
aS'http://www.hm.com/us/product/49915?article=49915-G'
p1113
aS'http://www.hm.com/us/product/59733?article=59733-A'
p1114
aS'http://www.hm.com/us/product/38298?article=38298-V'
p1115
aS'http://www.hm.com/us/product/61389?article=61389-B'
p1116
aS'http://www.hm.com/us/product/54951?article=54951-D'
p1117
aS'http://www.hm.com/us/product/66950?article=66950-A'
p1118
aS'http://www.hm.com/us/product/62365?article=62365-B'
p1119
aS'http://www.hm.com/us/product/63752?article=63752-A'
p1120
aS'http://www.hm.com/us/product/65375?article=65375-D'
p1121
aS'http://www.hm.com/us/product/44367?article=44367-D'
p1122
aS'http://www.hm.com/us/product/47458?article=47458-B'
p1123
aS'http://www.hm.com/us/product/64457?article=64457-I'
p1124
aS'http://www.hm.com/us/product/63487?article=63487-A'
p1125
aS'http://www.hm.com/us/product/60283?article=60283-B'
p1126
aS'http://www.hm.com/us/product/71470?article=71470-A'
p1127
aS'http://www.hm.com/us/product/59135?article=59135-C'
p1128
aS'http://www.hm.com/us/product/64089?article=64089-B'
p1129
aS'http://www.hm.com/us/product/41357?article=41357-B'
p1130
aS'http://www.hm.com/us/product/54431?article=54431-B'
p1131
aS'http://www.hm.com/us/product/72910?article=72910-A'
p1132
aS'http://www.hm.com/us/product/60161?article=60161-A'
p1133
aS'http://www.hm.com/us/product/68874?article=68874-A'
p1134
aS'http://www.hm.com/us/product/62551?article=62551-A'
p1135
aS'http://www.hm.com/us/product/48533?article=48533-C'
p1136
aS'http://www.hm.com/us/product/66008?article=66008-A'
p1137
aS'http://www.hm.com/us/product/64900?article=64900-B'
p1138
aS'http://www.hm.com/us/product/71233?article=71233-A'
p1139
aS'http://www.hm.com/us/product/66721?article=66721-A'
p1140
aS'http://www.hm.com/us/product/61024?article=61024-A'
p1141
aS'http://www.hm.com/us/product/59710?article=59710-C'
p1142
aS'http://www.hm.com/us/product/61533?article=61533-A'
p1143
aS'http://www.hm.com/us/product/66257?article=66257-A'
p1144
aS'http://www.hm.com/us/product/71844?article=71844-B'
p1145
aS'http://www.hm.com/us/product/65834?article=65834-A'
p1146
aS'http://www.hm.com/us/product/44163?article=44163-A'
p1147
aS'http://www.hm.com/us/product/65549?article=65549-A'
p1148
aS'http://www.hm.com/us/product/65040?article=65040-B'
p1149
aS'http://www.hm.com/us/product/64841?article=64841-B'
p1150
aS'http://www.hm.com/us/product/54951?article=54951-C'
p1151
aS'http://www.hm.com/us/product/56215?article=56215-A'
p1152
aS'http://www.hm.com/us/product/39655?article=39655-D'
p1153
aS'http://www.hm.com/us/product/59487?article=59487-A'
p1154
aS'http://www.hm.com/us/product/70105?article=70105-A'
p1155
aS'http://www.hm.com/us/product/69802?article=69802-C'
p1156
aS'http://www.hm.com/us/product/57122?article=57122-B'
p1157
aS'http://www.hm.com/us/product/61758?article=61758-C'
p1158
aS'http://www.hm.com/us/product/66770?article=66770-A'
p1159
aS'http://www.hm.com/us/product/60252?article=60252-A'
p1160
aS'http://www.hm.com/us/product/61909?article=61909-C'
p1161
aS'http://www.hm.com/us/product/61109?article=61109-A'
p1162
aS'http://www.hm.com/us/product/67808?article=67808-A'
p1163
aS'http://www.hm.com/us/product/68168?article=68168-A'
p1164
aS'http://www.hm.com/us/product/97302?article=97302-G'
p1165
aS'http://www.hm.com/us/product/64900?article=64900-A'
p1166
aS'http://www.hm.com/us/product/69022?article=69022-B'
p1167
aS'http://www.hm.com/us/product/64602?article=64602-A'
p1168
aS'http://www.hm.com/us/product/60350?article=60350-B'
p1169
aS'http://www.hm.com/us/product/67443?article=67443-A'
p1170
aS'http://www.hm.com/us/product/60083?article=60083-A'
p1171
aS'http://www.hm.com/us/product/65657?article=65657-B'
p1172
aS'http://www.hm.com/us/product/62586?article=62586-B'
p1173
aS'http://www.hm.com/us/product/65103?article=65103-A'
p1174
aS'http://www.hm.com/us/product/61854?article=61854-A'
p1175
aS'http://www.hm.com/us/product/81513?article=81513-C'
p1176
aS'http://www.hm.com/us/product/63631?article=63631-A'
p1177
aS'http://www.hm.com/us/product/86968?article=86968-U'
p1178
aS'http://www.hm.com/us/product/63611?article=63611-H'
p1179
aS'http://www.hm.com/us/product/68142?article=68142-B'
p1180
aS'http://www.hm.com/us/product/62702?article=62702-B'
p1181
aS'http://www.hm.com/us/product/37567?article=37567-C'
p1182
aS'http://www.hm.com/us/product/63707?article=63707-A'
p1183
aS'http://www.hm.com/us/product/64639?article=64639-A'
p1184
aS'http://www.hm.com/us/product/65029?article=65029-A'
p1185
aS'http://www.hm.com/us/product/60562?article=60562-A'
p1186
aS'http://www.hm.com/us/product/65277?article=65277-A'
p1187
aS'http://www.hm.com/us/product/65036?article=65036-B'
p1188
aS'http://www.hm.com/us/product/67049?article=67049-A'
p1189
aS'http://www.hm.com/us/product/67087?article=67087-A'
p1190
aS'http://www.hm.com/us/product/64041?article=64041-B'
p1191
aS'http://www.hm.com/us/product/64765?article=64765-A'
p1192
aS'http://www.hm.com/us/product/66001?article=66001-A'
p1193
aS'http://www.hm.com/us/product/63011?article=63011-A'
p1194
aS'http://www.hm.com/us/product/60545?article=60545-A'
p1195
aS'http://www.hm.com/us/product/58707?article=58707-A'
p1196
aS'http://www.hm.com/us/product/47105?article=47105-D'
p1197
aS'http://www.hm.com/us/product/62324?article=62324-A'
p1198
aS'http://www.hm.com/us/product/62687?article=62687-E'
p1199
aS'http://www.hm.com/us/product/62697?article=62697-B'
p1200
aS'http://www.hm.com/us/product/64777?article=64777-A'
p1201
aS'http://www.hm.com/us/product/65648?article=65648-A'
p1202
aS'http://www.hm.com/us/product/46127?article=46127-B'
p1203
aS'http://www.hm.com/us/product/60348?article=60348-B'
p1204
aS'http://www.hm.com/us/product/63816?article=63816-B'
p1205
aS'http://www.hm.com/us/product/68402?article=68402-A'
p1206
aS'http://www.hm.com/us/product/67473?article=67473-D'
p1207
aS'http://www.hm.com/us/product/68059?article=68059-A'
p1208
aS'http://www.hm.com/us/product/61719?article=61719-B'
p1209
aS'http://www.hm.com/us/product/64841?article=64841-A'
p1210
aS'http://www.hm.com/us/product/64324?article=64324-B'
p1211
aS'http://www.hm.com/us/product/64878?article=64878-A'
p1212
aS'http://www.hm.com/us/product/66849?article=66849-C'
p1213
aS'http://www.hm.com/us/product/38600?article=38600-T'
p1214
aS'http://www.hm.com/us/product/67160?article=67160-A'
p1215
aS'http://www.hm.com/us/product/69632?article=69632-A'
p1216
aS'http://www.hm.com/us/product/62359?article=62359-D'
p1217
aS'http://www.hm.com/us/product/61909?article=61909-A'
p1218
aS'http://www.hm.com/us/product/38600?article=38600-S'
p1219
aS'http://www.hm.com/us/product/65040?article=65040-A'
p1220
aS'http://www.hm.com/us/product/67276?article=67276-A'
p1221
aS'http://www.hm.com/us/product/65396?article=65396-A'
p1222
aS'http://www.hm.com/us/product/61909?article=61909-D'
p1223
aS'http://www.hm.com/us/product/48894?article=48894-A'
p1224
aS'http://www.hm.com/us/product/46435?article=46435-D'
p1225
aS'http://www.hm.com/us/product/67466?article=67466-A'
p1226
aS'http://www.hm.com/us/product/65971?article=65971-B'
p1227
aS'http://www.hm.com/us/product/64324?article=64324-A'
p1228
aS'http://www.hm.com/us/product/65202?article=65202-A'
p1229
aS'http://www.hm.com/us/product/62390?article=62390-B'
p1230
aS'http://www.hm.com/us/product/61966?article=61966-E'
p1231
aS'http://www.hm.com/us/product/67353?article=67353-A'
p1232
aS'http://www.hm.com/us/product/49909?article=49909-A'
p1233
aS'http://www.hm.com/us/product/65968?article=65968-A'
p1234
aS'http://www.hm.com/us/product/65392?article=65392-A'
p1235
aS'http://www.hm.com/us/product/67690?article=67690-A'
p1236
aS'http://www.hm.com/us/product/59487?article=59487-E'
p1237
aS'http://www.hm.com/us/product/67852?article=67852-A'
p1238
aS'http://www.hm.com/us/product/64798?article=64798-A'
p1239
aS'http://www.hm.com/us/product/40681?article=40681-I'
p1240
aS'http://www.hm.com/us/product/07181?article=07181-E'
p1241
aS'http://www.hm.com/us/product/65766?article=65766-A'
p1242
aS'http://www.hm.com/us/product/42868?article=42868-G'
p1243
aS'http://www.hm.com/us/product/59735?article=59735-A'
p1244
aS'http://www.hm.com/us/product/59456?article=59456-D'
p1245
aS'http://www.hm.com/us/product/66711?article=66711-A'
p1246
aS'http://www.hm.com/us/product/61580?article=61580-E'
p1247
aS'http://www.hm.com/us/product/62421?article=62421-A'
p1248
aS'http://www.hm.com/us/product/68854?article=68854-B'
p1249
aS'http://www.hm.com/us/product/50064?article=50064-D'
p1250
aS'http://www.hm.com/us/product/66257?article=66257-B'
p1251
aS'http://www.hm.com/us/product/59487?article=59487-D'
p1252
aS'http://www.hm.com/us/product/65879?article=65879-A'
p1253
aS'http://www.hm.com/us/product/48677?article=48677-P'
p1254
aS'http://www.hm.com/us/product/60546?article=60546-A'
p1255
aS'http://www.hm.com/us/product/59456?article=59456-A'
p1256
aS'http://www.hm.com/us/product/65652?article=65652-A'
p1257
aS'http://www.hm.com/us/product/61830?article=61830-A'
p1258
aS'http://www.hm.com/us/product/63458?article=63458-A'
p1259
aS'http://www.hm.com/us/product/60710?article=60710-J'
p1260
aS'http://www.hm.com/us/product/61909?article=61909-B'
p1261
aS'http://www.hm.com/us/product/63707?article=63707-B'
p1262
aS'http://www.hm.com/us/product/68503?article=68503-A'
p1263
aS'http://www.hm.com/us/product/61963?article=61963-A'
p1264
aS'http://www.hm.com/us/product/65549?article=65549-B'
p1265
aS'http://www.hm.com/us/product/64777?article=64777-C'
p1266
aS'http://www.hm.com/us/product/65971?article=65971-A'
p1267
aS'http://www.hm.com/us/product/70079?article=70079-A'
p1268
aS'http://www.hm.com/us/product/61300?article=61300-A'
p1269
aS'http://www.hm.com/us/product/64502?article=64502-A'
p1270
aS'http://www.hm.com/us/product/48246?article=48246-A'
p1271
aS'http://www.hm.com/us/product/65325?article=65325-A'
p1272
aS'http://www.hm.com/us/product/48938?article=48938-A'
p1273
aS'http://www.hm.com/us/product/15922?article=15922-I'
p1274
aS'http://www.hm.com/us/product/53981?article=53981-G'
p1275
aS'http://www.hm.com/us/product/11145?article=11145-E'
p1276
aS'http://www.hm.com/us/product/62366?article=62366-B'
p1277
aS'http://www.hm.com/us/product/66261?article=66261-A'
p1278
aS'http://www.hm.com/us/product/43828?article=43828-A'
p1279
aS'http://www.hm.com/us/product/47759?article=47759-A'
p1280
aS'http://www.hm.com/us/product/60852?article=60852-A'
p1281
aS'http://www.hm.com/us/product/69852?article=69852-B'
p1282
aS'http://www.hm.com/us/product/66215?article=66215-A'
p1283
aS'http://www.hm.com/us/product/58707?article=58707-B'
p1284
aS'http://www.hm.com/us/product/61638?article=61638-A'
p1285
aS'http://www.hm.com/us/product/09541?article=09541-D'
p1286
aS'http://www.hm.com/us/product/66287?article=66287-A'
p1287
aS'http://www.hm.com/us/product/70422?article=70422-A'
p1288
aS'http://www.hm.com/us/product/69618?article=69618-A'
p1289
aS'http://www.hm.com/us/product/60556?article=60556-A'
p1290
aS'http://www.hm.com/us/product/63582?article=63582-A'
p1291
aS'http://www.hm.com/us/product/71199?article=71199-A'
p1292
aS'http://www.hm.com/us/product/62570?article=62570-A'
p1293
aS'http://www.hm.com/us/product/37930?article=37930-I'
p1294
aS'http://www.hm.com/us/product/62545?article=62545-A'
p1295
aS'http://www.hm.com/us/product/42868?article=42868-J'
p1296
aS'http://www.hm.com/us/product/63707?article=63707-C'
p1297
aS'http://www.hm.com/us/product/48633?article=48633-G'
p1298
aS'http://www.hm.com/us/product/31120?article=31120-E'
p1299
aS'http://www.hm.com/us/product/66402?article=66402-A'
p1300
aS'http://www.hm.com/us/product/62486?article=62486-A'
p1301
aS'http://www.hm.com/us/product/67204?article=67204-A'
p1302
aS'http://www.hm.com/us/product/64384?article=64384-A'
p1303
aS'http://www.hm.com/us/product/60350?article=60350-A'
p1304
aS'http://www.hm.com/us/product/67331?article=67331-D'
p1305
aS'http://www.hm.com/us/product/66991?article=66991-A'
p1306
aS'http://www.hm.com/us/product/66050?article=66050-A'
p1307
aS'http://www.hm.com/us/product/23987?article=23987-E'
p1308
aS'http://www.hm.com/us/product/54167?article=54167-A'
p1309
aS'http://www.hm.com/us/product/61914?article=61914-A'
p1310
aS'http://www.hm.com/us/product/53858?article=53858-A'
p1311
aS'http://www.hm.com/us/product/49818?article=49818-A'
p1312
aS'http://www.hm.com/us/product/66969?article=66969-A'
p1313
aS'http://www.hm.com/us/product/62547?article=62547-A'
p1314
aS'http://www.hm.com/us/product/66737?article=66737-A'
p1315
aS'http://www.hm.com/us/product/58267?article=58267-A'
p1316
aS'http://www.hm.com/us/product/60545?article=60545-B'
p1317
aS'http://www.hm.com/us/product/63964?article=63964-A'
p1318
aS'http://www.hm.com/us/product/62563?article=62563-A'
p1319
aS'http://www.hm.com/us/product/60704?article=60704-A'
p1320
aS'http://www.hm.com/us/product/64516?article=64516-A'
p1321
aS'http://www.hm.com/us/product/62615?article=62615-A'
p1322
aS'http://www.hm.com/us/product/03226?article=03226-T'
p1323
aS'http://www.hm.com/us/product/63104?article=63104-A'
p1324
aS'http://www.hm.com/us/product/86626?article=86626-A'
p1325
aS'http://www.hm.com/us/product/48110?article=48110-B'
p1326
aS'http://www.hm.com/us/product/66721?article=66721-B'
p1327
aS'http://www.hm.com/us/product/67528?article=67528-A'
p1328
aS'http://www.hm.com/us/product/60563?article=60563-A'
p1329
aS'http://www.hm.com/us/product/51117?article=51117-J'
p1330
aS'http://www.hm.com/us/product/60231?article=60231-A'
p1331
aS'http://www.hm.com/us/product/64387?article=64387-A'
p1332
aS'http://www.hm.com/us/product/87648?article=87648-R'
p1333
aS'http://www.hm.com/us/product/64777?article=64777-D'
p1334
aS'http://www.hm.com/us/product/82813?article=82813-K'
p1335
aS'http://www.hm.com/us/product/65951?article=65951-A'
p1336
aS'http://www.hm.com/us/product/44861?article=44861-E'
p1337
aS'http://www.hm.com/us/product/57316?article=57316-B'
p1338
aS'http://www.hm.com/us/product/65325?article=65325-B'
p1339
aS'http://www.hm.com/us/product/57321?article=57321-B'
p1340
aS'http://www.hm.com/us/product/67473?article=67473-B'
p1341
aS'http://www.hm.com/us/product/57316?article=57316-C'
p1342
aS'http://www.hm.com/us/product/61639?article=61639-B'
p1343
aS'http://www.hm.com/us/product/46528?article=46528-A'
p1344
aS'http://www.hm.com/us/product/54951?article=54951-B'
p1345
aS'http://www.hm.com/us/product/69022?article=69022-A'
p1346
aS'http://www.hm.com/us/product/48455?article=48455-H'
p1347
aS'http://www.hm.com/us/product/86968?article=86968-S'
p1348
aS'http://www.hm.com/us/product/63888?article=63888-B'
p1349
aS'http://www.hm.com/us/product/65655?article=65655-D'
p1350
aS'http://www.hm.com/us/product/58350?article=58350-B'
p1351
aS'http://www.hm.com/us/product/60702?article=60702-C'
p1352
aS'http://www.hm.com/us/product/46528?article=46528-F'
p1353
aS'http://www.hm.com/us/product/48995?article=48995-P'
p1354
aS'http://www.hm.com/us/product/61580?article=61580-D'
p1355
aS'http://www.hm.com/us/product/67909?article=67909-A'
p1356
aS'http://www.hm.com/us/product/67858?article=67858-B'
p1357
aS'http://www.hm.com/us/product/67053?article=67053-A'
p1358
aS'http://www.hm.com/us/product/65032?article=65032-A'
p1359
aS'http://www.hm.com/us/product/63566?article=63566-B'
p1360
aS'http://www.hm.com/us/product/62562?article=62562-A'
p1361
aS'http://www.hm.com/us/product/62569?article=62569-A'
p1362
aS'http://www.hm.com/us/product/67916?article=67916-A'
p1363
aS'http://www.hm.com/us/product/67349?article=67349-A'
p1364
aS'http://www.hm.com/us/product/55108?article=55108-A'
p1365
aS'http://www.hm.com/us/product/50896?article=50896-P'
p1366
aS'http://www.hm.com/us/product/60230?article=60230-B'
p1367
aS'http://www.hm.com/us/product/62819?article=62819-A'
p1368
aS'http://www.hm.com/us/product/67805?article=67805-A'
p1369
aS'http://www.hm.com/us/product/61300?article=61300-B'
p1370
aS'http://www.hm.com/us/product/66215?article=66215-B'
p1371
aS'http://www.hm.com/us/product/64659?article=64659-A'
p1372
aS'http://www.hm.com/us/product/49879?article=49879-D'
p1373
aS'http://www.hm.com/us/product/64907?article=64907-A'
p1374
aS'http://www.hm.com/us/product/40345?article=40345-J'
p1375
aS'http://www.hm.com/us/product/64731?article=64731-A'
p1376
aS'http://www.hm.com/us/product/65036?article=65036-A'
p1377
aS'http://www.hm.com/us/product/60878?article=60878-B'
p1378
aS'http://www.hm.com/us/product/11145?article=11145-F'
p1379
aS'http://www.hm.com/us/product/64642?article=64642-A'
p1380
aS'http://www.hm.com/us/product/55501?article=55501-A'
p1381
aS'http://www.hm.com/us/product/65375?article=65375-C'
p1382
aS'http://www.hm.com/us/product/62552?article=62552-A'
p1383
aS'http://www.hm.com/us/product/67661?article=67661-B'
p1384
aS'http://www.hm.com/us/product/62612?article=62612-A'
p1385
aS'http://www.hm.com/us/product/64592?article=64592-A'
p1386
aS'http://www.hm.com/us/product/54213?article=54213-A'
p1387
aS'http://www.hm.com/us/product/65605?article=65605-A'
p1388
aS'http://www.hm.com/us/product/65634?article=65634-B'
p1389
aS'http://www.hm.com/us/product/62566?article=62566-A'
p1390
aS'http://www.hm.com/us/product/68492?article=68492-A'
p1391
aS'http://www.hm.com/us/product/66034?article=66034-A'
p1392
aS'http://www.hm.com/us/product/67334?article=67334-C'
p1393
aS'http://www.hm.com/us/product/66011?article=66011-A'
p1394
aS'http://www.hm.com/us/product/66534?article=66534-A'
p1395
aS'http://www.hm.com/us/product/66287?article=66287-B'
p1396
aS'http://www.hm.com/us/product/53407?article=53407-B'
p1397
aS'http://www.hm.com/us/product/62687?article=62687-C'
p1398
aS'http://www.hm.com/us/product/60163?article=60163-A'
p1399
aS'http://www.hm.com/us/product/66801?article=66801-A'
p1400
aS'http://www.hm.com/us/product/59735?article=59735-B'
p1401
aS'http://www.hm.com/us/product/38853?article=38853-A'
p1402
aS'http://www.hm.com/us/product/65026?article=65026-A'
p1403
aS'http://www.hm.com/us/product/64457?article=64457-G'
p1404
aS'http://www.hm.com/us/product/65172?article=65172-A'
p1405
aS'http://www.hm.com/us/product/67109?article=67109-A'
p1406
aS'http://www.hm.com/us/product/67216?article=67216-A'
p1407
aS'http://www.hm.com/us/product/64041?article=64041-A'
p1408
aS'http://www.hm.com/us/product/62384?article=62384-A'
p1409
aS'http://www.hm.com/us/product/40681?article=40681-F'
p1410
aS'http://www.hm.com/us/product/65202?article=65202-C'
p1411
aS'http://www.hm.com/us/product/60348?article=60348-A'
p1412
aS'http://www.hm.com/us/product/46109?article=46109-B'
p1413
aS'http://www.hm.com/us/product/64863?article=64863-A'
p1414
aS'http://www.hm.com/us/product/65904?article=65904-B'
p1415
aS'http://www.hm.com/us/product/03226?article=03226-S'
p1416
aS'http://www.hm.com/us/product/65413?article=65413-A'
p1417
aS'http://www.hm.com/us/product/65551?article=65551-D'
p1418
aS'http://www.hm.com/us/product/65202?article=65202-B'
p1419
aS'http://www.hm.com/us/product/60082?article=60082-C'
p1420
aS'http://www.hm.com/us/product/03226?article=03226-I'
p1421
aS'http://www.hm.com/us/product/62567?article=62567-A'
p1422
aS'http://www.hm.com/us/product/60199?article=60199-C'
p1423
aS'http://www.hm.com/us/product/66375?article=66375-A'
p1424
aS'http://www.hm.com/us/product/53981?article=53981-F'
p1425
aS'http://www.hm.com/us/product/59225?article=59225-C'
p1426
aS'http://www.hm.com/us/product/58971?article=58971-A'
p1427
aS'http://www.hm.com/us/product/65636?article=65636-A'
p1428
aS'http://www.hm.com/us/product/61500?article=61500-A'
p1429
aS'http://www.hm.com/us/product/54209?article=54209-B'
p1430
aS'http://www.hm.com/us/product/62620?article=62620-A'
p1431
aS'http://www.hm.com/us/product/58035?article=58035-D'
p1432
aS'http://www.hm.com/us/product/47105?article=47105-A'
p1433
aS'http://www.hm.com/us/product/60082?article=60082-B'
p1434
aS'http://www.hm.com/us/product/66783?article=66783-A'
p1435
aS'http://www.hm.com/us/product/62319?article=62319-A'
p1436
aS'http://www.hm.com/us/product/60548?article=60548-A'
p1437
aS'http://www.hm.com/us/product/62548?article=62548-A'
p1438
aS'http://www.hm.com/us/product/57316?article=57316-D'
p1439
aS'http://www.hm.com/us/product/65634?article=65634-A'
p1440
aS'http://www.hm.com/us/product/65614?article=65614-A'
p1441
aS'http://www.hm.com/us/product/46022?article=46022-E'
p1442
aS'http://www.hm.com/us/product/63576?article=63576-A'
p1443
aS'http://www.hm.com/us/product/65036?article=65036-C'
p1444
aS'http://www.hm.com/us/product/30583?article=30583-A'
p1445
aS'http://www.hm.com/us/product/62611?article=62611-A'
p1446
aS'http://www.hm.com/us/product/67093?article=67093-A'
p1447
aS'http://www.hm.com/us/product/60714?article=60714-B'
p1448
aS'http://www.hm.com/us/product/62616?article=62616-A'
p1449
aS'http://www.hm.com/us/product/46022?article=46022-F'
p1450
aS'http://www.hm.com/us/product/62591?article=62591-C'
p1451
aS'http://www.hm.com/us/product/64271?article=64271-C'
p1452
aS'http://www.hm.com/us/product/60696?article=60696-A'
p1453
aS'http://www.hm.com/us/product/62687?article=62687-B'
p1454
aS'http://www.hm.com/us/product/59552?article=59552-I'
p1455
aS'http://www.hm.com/us/product/60694?article=60694-A'
p1456
aS'http://www.hm.com/us/product/58247?article=58247-A'
p1457
aS'http://www.hm.com/us/product/60213?article=60213-D'
p1458
aS'http://www.hm.com/us/product/62753?article=62753-B'
p1459
aS'http://www.hm.com/us/product/56592?article=56592-C'
p1460
aS'http://www.hm.com/us/product/64089?article=64089-A'
p1461
aS'http://www.hm.com/us/product/66955?article=66955-B'
p1462
aS'http://www.hm.com/us/product/64504?article=64504-A'
p1463
aS'http://www.hm.com/us/product/60693?article=60693-A'
p1464
aS'http://www.hm.com/us/product/43807?article=43807-A'
p1465
aS'http://www.hm.com/us/product/63732?article=63732-B'
p1466
aS'http://www.hm.com/us/product/74275?article=74275-K'
p1467
aS'http://www.hm.com/us/product/54572?article=54572-A'
p1468
aS'http://www.hm.com/us/product/64814?article=64814-A'
p1469
aS'http://www.hm.com/us/product/62546?article=62546-A'
p1470
aS'http://www.hm.com/us/product/37958?article=37958-J'
p1471
aS'http://www.hm.com/us/product/63083?article=63083-A'
p1472
aS'http://www.hm.com/us/product/66599?article=66599-A'
p1473
aS'http://www.hm.com/us/product/62343?article=62343-B'
p1474
aS'http://www.hm.com/us/product/62302?article=62302-A'
p1475
aS'http://www.hm.com/us/product/64232?article=64232-B'
p1476
aS'http://www.hm.com/us/product/53981?article=53981-E'
p1477
aS'http://www.hm.com/us/product/85247?article=85247-H'
p1478
aS'http://www.hm.com/us/product/43807?article=43807-E'
p1479
aS'http://www.hm.com/us/product/59552?article=59552-C'
p1480
aS'http://www.hm.com/us/product/62618?article=62618-A'
p1481
aS'http://www.hm.com/us/product/62520?article=62520-C'
p1482
aS'http://www.hm.com/us/product/68449?article=68449-A'
p1483
aS'http://www.hm.com/us/product/69968?article=69968-A'
p1484
aS'http://www.hm.com/us/product/51636?article=51636-C'
p1485
aS'http://www.hm.com/us/product/59086?article=59086-A'
p1486
aS'http://www.hm.com/us/product/69415?article=69415-A'
p1487
aS'http://www.hm.com/us/product/63384?article=63384-A'
p1488
aS'http://www.hm.com/us/product/43828?article=43828-D'
p1489
aS'http://www.hm.com/us/product/62520?article=62520-B'
p1490
a.