(lp0
S'http://www.hm.com/us/product/66626?article=66626-A'
p1
aS'http://www.hm.com/us/product/59806?article=59806-A'
p2
aS'http://www.hm.com/us/product/60911?article=60911-C'
p3
aS'http://www.hm.com/us/product/63991?article=63991-A'
p4
aS'http://www.hm.com/us/product/51558?article=51558-P'
p5
aS'http://www.hm.com/us/product/61334?article=61334-A'
p6
aS'http://www.hm.com/us/product/62690?article=62690-B'
p7
aS'http://www.hm.com/us/product/62690?article=62690-A'
p8
aS'http://www.hm.com/us/product/63735?article=63735-B'
p9
aS'http://www.hm.com/us/product/64733?article=64733-A'
p10
aS'http://www.hm.com/us/product/62647?article=62647-C'
p11
aS'http://www.hm.com/us/product/62647?article=62647-F'
p12
aS'http://www.hm.com/us/product/64831?article=64831-A'
p13
aS'http://www.hm.com/us/product/64763?article=64763-A'
p14
aS'http://www.hm.com/us/product/64574?article=64574-A'
p15
aS'http://www.hm.com/us/product/62449?article=62449-A'
p16
aS'http://www.hm.com/us/product/63572?article=63572-A'
p17
aS'http://www.hm.com/us/product/64128?article=64128-C'
p18
aS'http://www.hm.com/us/product/64128?article=64128-B'
p19
aS'http://www.hm.com/us/product/60125?article=60125-A'
p20
aS'http://www.hm.com/us/product/15615?article=15615-M'
p21
aS'http://www.hm.com/us/product/50455?article=50455-C'
p22
aS'http://www.hm.com/us/product/63740?article=63740-A'
p23
aS'http://www.hm.com/us/product/60226?article=60226-D'
p24
aS'http://www.hm.com/us/product/48995?article=48995-D'
p25
aS'http://www.hm.com/us/product/55160?article=55160-A'
p26
aS'http://www.hm.com/us/product/59355?article=59355-A'
p27
aS'http://www.hm.com/us/product/60285?article=60285-A'
p28
aS'http://www.hm.com/us/product/49110?article=49110-D'
p29
aS'http://www.hm.com/us/product/59709?article=59709-C'
p30
aS'http://www.hm.com/us/product/59709?article=59709-A'
p31
aS'http://www.hm.com/us/product/60672?article=60672-B'
p32
aS'http://www.hm.com/us/product/34422?article=34422-C'
p33
aS'http://www.hm.com/us/product/60125?article=60125-B'
p34
aS'http://www.hm.com/us/product/53639?article=53639-A'
p35
aS'http://www.hm.com/us/product/61003?article=61003-G'
p36
aS'http://www.hm.com/us/product/52299?article=52299-A'
p37
aS'http://www.hm.com/us/product/60672?article=60672-A'
p38
aS'http://www.hm.com/us/product/60742?article=60742-A'
p39
aS'http://www.hm.com/us/product/53893?article=53893-A'
p40
aS'http://www.hm.com/us/product/54619?article=54619-A'
p41
aS'http://www.hm.com/us/product/61330?article=61330-A'
p42
aS'http://www.hm.com/us/product/56083?article=56083-A'
p43
aS'http://www.hm.com/us/product/54323?article=54323-A'
p44
aS'http://www.hm.com/us/product/63699?article=63699-B'
p45
aS'http://www.hm.com/us/product/60577?article=60577-C'
p46
aS'http://www.hm.com/us/product/62399?article=62399-C'
p47
aS'http://www.hm.com/us/product/61413?article=61413-A'
p48
aS'http://www.hm.com/us/product/60027?article=60027-D'
p49
aS'http://www.hm.com/us/product/55923?article=55923-B'
p50
aS'http://www.hm.com/us/product/60615?article=60615-A'
p51
aS'http://www.hm.com/us/product/38701?article=38701-R'
p52
aS'http://www.hm.com/us/product/63699?article=63699-A'
p53
aS'http://www.hm.com/us/product/60285?article=60285-B'
p54
aS'http://www.hm.com/us/product/58836?article=58836-A'
p55
aS'http://www.hm.com/us/product/60577?article=60577-B'
p56
aS'http://www.hm.com/us/product/61789?article=61789-B'
p57
aS'http://www.hm.com/us/product/58626?article=58626-B'
p58
aS'http://www.hm.com/us/product/58833?article=58833-A'
p59
aS'http://www.hm.com/us/product/60924?article=60924-B'
p60
aS'http://www.hm.com/us/product/60027?article=60027-E'
p61
aS'http://www.hm.com/us/product/60217?article=60217-D'
p62
aS'http://www.hm.com/us/product/55258?article=55258-A'
p63
aS'http://www.hm.com/us/product/61293?article=61293-A'
p64
aS'http://www.hm.com/us/product/58833?article=58833-B'
p65
aS'http://www.hm.com/us/product/60863?article=60863-A'
p66
aS'http://www.hm.com/us/product/48189?article=48189-C'
p67
aS'http://www.hm.com/us/product/58834?article=58834-A'
p68
aS'http://www.hm.com/us/product/50019?article=50019-A'
p69
aS'http://www.hm.com/us/product/55910?article=55910-A'
p70
aS'http://www.hm.com/us/product/57858?article=57858-A'
p71
aS'http://www.hm.com/us/product/50438?article=50438-E'
p72
aS'http://www.hm.com/us/product/60911?article=60911-B'
p73
aS'http://www.hm.com/us/product/53551?article=53551-A'
p74
aS'http://www.hm.com/us/product/59943?article=59943-D'
p75
aS'http://www.hm.com/us/product/64114?article=64114-A'
p76
aS'http://www.hm.com/us/product/58409?article=58409-B'
p77
aS'http://www.hm.com/us/product/39181?article=39181-A'
p78
aS'http://www.hm.com/us/product/49110?article=49110-R'
p79
aS'http://www.hm.com/us/product/49731?article=49731-B'
p80
aS'http://www.hm.com/us/product/60097?article=60097-C'
p81
aS'http://www.hm.com/us/product/37115?article=37115-C'
p82
aS'http://www.hm.com/us/product/98867?article=98867-S'
p83
aS'http://www.hm.com/us/product/52106?article=52106-G'
p84
aS'http://www.hm.com/us/product/64842?article=64842-A'
p85
aS'http://www.hm.com/us/product/09988?article=09988-N'
p86
aS'http://www.hm.com/us/product/49284?article=49284-B'
p87
aS'http://www.hm.com/us/product/49118?article=49118-A'
p88
aS'http://www.hm.com/us/product/60027?article=60027-C'
p89
aS'http://www.hm.com/us/product/57373?article=57373-A'
p90
aS'http://www.hm.com/us/product/56484?article=56484-A'
p91
aS'http://www.hm.com/us/product/59878?article=59878-C'
p92
aS'http://www.hm.com/us/product/32935?article=32935-F'
p93
aS'http://www.hm.com/us/product/62800?article=62800-C'
p94
aS'http://www.hm.com/us/product/52003?article=52003-A'
p95
aS'http://www.hm.com/us/product/33612?article=33612-H'
p96
aS'http://www.hm.com/us/product/33612?article=33612-F'
p97
aS'http://www.hm.com/us/product/64449?article=64449-A'
p98
aS'http://www.hm.com/us/product/65536?article=65536-A'
p99
aS'http://www.hm.com/us/product/38701?article=38701-A'
p100
aS'http://www.hm.com/us/product/54951?article=54951-A'
p101
aS'http://www.hm.com/us/product/63358?article=63358-A'
p102
aS'http://www.hm.com/us/product/60553?article=60553-A'
p103
aS'http://www.hm.com/us/product/58144?article=58144-A'
p104
aS'http://www.hm.com/us/product/48597?article=48597-A'
p105
aS'http://www.hm.com/us/product/34842?article=34842-C'
p106
aS'http://www.hm.com/us/product/57915?article=57915-F'
p107
aS'http://www.hm.com/us/product/32935?article=32935-A'
p108
aS'http://www.hm.com/us/product/62776?article=62776-A'
p109
aS'http://www.hm.com/us/product/57524?article=57524-A'
p110
aS'http://www.hm.com/us/product/60243?article=60243-A'
p111
aS'http://www.hm.com/us/product/60966?article=60966-B'
p112
aS'http://www.hm.com/us/product/48455?article=48455-D'
p113
aS'http://www.hm.com/us/product/53619?article=53619-D'
p114
aS'http://www.hm.com/us/product/68370?article=68370-A'
p115
aS'http://www.hm.com/us/product/57915?article=57915-D'
p116
aS'http://www.hm.com/us/product/34422?article=34422-F'
p117
aS'http://www.hm.com/us/product/54197?article=54197-A'
p118
aS'http://www.hm.com/us/product/49405?article=49405-M'
p119
aS'http://www.hm.com/us/product/57531?article=57531-A'
p120
aS'http://www.hm.com/us/product/58879?article=58879-A'
p121
aS'http://www.hm.com/us/product/48203?article=48203-A'
p122
aS'http://www.hm.com/us/product/52282?article=52282-B'
p123
aS'http://www.hm.com/us/product/58409?article=58409-A'
p124
aS'http://www.hm.com/us/product/47543?article=47543-A'
p125
aS'http://www.hm.com/us/product/63939?article=63939-A'
p126
aS'http://www.hm.com/us/product/01998?article=01998-Y'
p127
aS'http://www.hm.com/us/product/43803?article=43803-C'
p128
aS'http://www.hm.com/us/product/52645?article=52645-E'
p129
aS'http://www.hm.com/us/product/65659?article=65659-A'
p130
aS'http://www.hm.com/us/product/33955?article=33955-A'
p131
aS'http://www.hm.com/us/product/48995?article=48995-G'
p132
aS'http://www.hm.com/us/product/60192?article=60192-A'
p133
aS'http://www.hm.com/us/product/61782?article=61782-B'
p134
aS'http://www.hm.com/us/product/54855?article=54855-A'
p135
aS'http://www.hm.com/us/product/42047?article=42047-C'
p136
aS'http://www.hm.com/us/product/60195?article=60195-A'
p137
aS'http://www.hm.com/us/product/59744?article=59744-A'
p138
aS'http://www.hm.com/us/product/58101?article=58101-A'
p139
aS'http://www.hm.com/us/product/57823?article=57823-A'
p140
aS'http://www.hm.com/us/product/60192?article=60192-B'
p141
aS'http://www.hm.com/us/product/57607?article=57607-B'
p142
aS'http://www.hm.com/us/product/50222?article=50222-B'
p143
aS'http://www.hm.com/us/product/64313?article=64313-A'
p144
aS'http://www.hm.com/us/product/60283?article=60283-C'
p145
aS'http://www.hm.com/us/product/59190?article=59190-B'
p146
aS'http://www.hm.com/us/product/65536?article=65536-B'
p147
aS'http://www.hm.com/us/product/64726?article=64726-B'
p148
aS'http://www.hm.com/us/product/62171?article=62171-A'
p149
aS'http://www.hm.com/us/product/52650?article=52650-A'
p150
aS'http://www.hm.com/us/product/67866?article=67866-B'
p151
aS'http://www.hm.com/us/product/36693?article=36693-A'
p152
aS'http://www.hm.com/us/product/63941?article=63941-C'
p153
aS'http://www.hm.com/us/product/51155?article=51155-A'
p154
aS'http://www.hm.com/us/product/61003?article=61003-H'
p155
aS'http://www.hm.com/us/product/59190?article=59190-A'
p156
aS'http://www.hm.com/us/product/51558?article=51558-L'
p157
aS'http://www.hm.com/us/product/60243?article=60243-B'
p158
aS'http://www.hm.com/us/product/57545?article=57545-B'
p159
aS'http://www.hm.com/us/product/56327?article=56327-A'
p160
aS'http://www.hm.com/us/product/59943?article=59943-A'
p161
aS'http://www.hm.com/us/product/57915?article=57915-E'
p162
aS'http://www.hm.com/us/product/85961?article=85961-E'
p163
aS'http://www.hm.com/us/product/58294?article=58294-A'
p164
aS'http://www.hm.com/us/product/60861?article=60861-C'
p165
aS'http://www.hm.com/us/product/57276?article=57276-A'
p166
aS'http://www.hm.com/us/product/56721?article=56721-A'
p167
aS'http://www.hm.com/us/product/53917?article=53917-A'
p168
aS'http://www.hm.com/us/product/60966?article=60966-A'
p169
aS'http://www.hm.com/us/product/63960?article=63960-A'
p170
aS'http://www.hm.com/us/product/66052?article=66052-A'
p171
aS'http://www.hm.com/us/product/46177?article=46177-I'
p172
aS'http://www.hm.com/us/product/63941?article=63941-A'
p173
aS'http://www.hm.com/us/product/57891?article=57891-B'
p174
aS'http://www.hm.com/us/product/57738?article=57738-A'
p175
aS'http://www.hm.com/us/product/34820?article=34820-D'
p176
aS'http://www.hm.com/us/product/56603?article=56603-A'
p177
aS'http://www.hm.com/us/product/52417?article=52417-A'
p178
aS'http://www.hm.com/us/product/60544?article=60544-A'
p179
aS'http://www.hm.com/us/product/61278?article=61278-B'
p180
aS'http://www.hm.com/us/product/46878?article=46878-B'
p181
aS'http://www.hm.com/us/product/55259?article=55259-B'
p182
aS'http://www.hm.com/us/product/62800?article=62800-D'
p183
aS'http://www.hm.com/us/product/59877?article=59877-A'
p184
aS'http://www.hm.com/us/product/61921?article=61921-A'
p185
aS'http://www.hm.com/us/product/00468?article=00468-N'
p186
aS'http://www.hm.com/us/product/55550?article=55550-A'
p187
aS'http://www.hm.com/us/product/46504?article=46504-B'
p188
aS'http://www.hm.com/us/product/49250?article=49250-A'
p189
aS'http://www.hm.com/us/product/62266?article=62266-A'
p190
aS'http://www.hm.com/us/product/56437?article=56437-B'
p191
aS'http://www.hm.com/us/product/32935?article=32935-B'
p192
aS'http://www.hm.com/us/product/49323?article=49323-H'
p193
aS'http://www.hm.com/us/product/98867?article=98867-T'
p194
aS'http://www.hm.com/us/product/62782?article=62782-B'
p195
aS'http://www.hm.com/us/product/55088?article=55088-A'
p196
aS'http://www.hm.com/us/product/13902?article=13902-E'
p197
aS'http://www.hm.com/us/product/60792?article=60792-A'
p198
aS'http://www.hm.com/us/product/15615?article=15615-K'
p199
aS'http://www.hm.com/us/product/59741?article=59741-A'
p200
aS'http://www.hm.com/us/product/49879?article=49879-C'
p201
aS'http://www.hm.com/us/product/34422?article=34422-G'
p202
aS'http://www.hm.com/us/product/57524?article=57524-C'
p203
aS'http://www.hm.com/us/product/62432?article=62432-B'
p204
aS'http://www.hm.com/us/product/60861?article=60861-A'
p205
aS'http://www.hm.com/us/product/58116?article=58116-A'
p206
aS'http://www.hm.com/us/product/39957?article=39957-F'
p207
aS'http://www.hm.com/us/product/34640?article=34640-A'
p208
aS'http://www.hm.com/us/product/60544?article=60544-B'
p209
aS'http://www.hm.com/us/product/61849?article=61849-A'
p210
aS'http://www.hm.com/us/product/59788?article=59788-A'
p211
aS'http://www.hm.com/us/product/58205?article=58205-A'
p212
aS'http://www.hm.com/us/product/50357?article=50357-E'
p213
aS'http://www.hm.com/us/product/58204?article=58204-B'
p214
aS'http://www.hm.com/us/product/60330?article=60330-B'
p215
aS'http://www.hm.com/us/product/58009?article=58009-A'
p216
aS'http://www.hm.com/us/product/48222?article=48222-D'
p217
aS'http://www.hm.com/us/product/61920?article=61920-B'
p218
aS'http://www.hm.com/us/product/61789?article=61789-A'
p219
aS'http://www.hm.com/us/product/43586?article=43586-C'
p220
aS'http://www.hm.com/us/product/54053?article=54053-A'
p221
aS'http://www.hm.com/us/product/60097?article=60097-A'
p222
aS'http://www.hm.com/us/product/50627?article=50627-B'
p223
aS'http://www.hm.com/us/product/56485?article=56485-A'
p224
aS'http://www.hm.com/us/product/63941?article=63941-B'
p225
aS'http://www.hm.com/us/product/50655?article=50655-A'
p226
aS'http://www.hm.com/us/product/63938?article=63938-B'
p227
aS'http://www.hm.com/us/product/57059?article=57059-A'
p228
aS'http://www.hm.com/us/product/61195?article=61195-A'
p229
aS'http://www.hm.com/us/product/57607?article=57607-A'
p230
aS'http://www.hm.com/us/product/58248?article=58248-A'
p231
aS'http://www.hm.com/us/product/55624?article=55624-B'
p232
aS'http://www.hm.com/us/product/51203?article=51203-A'
p233
aS'http://www.hm.com/us/product/56366?article=56366-A'
p234
aS'http://www.hm.com/us/product/38456?article=38456-A'
p235
aS'http://www.hm.com/us/product/56607?article=56607-D'
p236
aS'http://www.hm.com/us/product/61731?article=61731-A'
p237
aS'http://www.hm.com/us/product/58124?article=58124-A'
p238
aS'http://www.hm.com/us/product/00992?article=00992-B'
p239
aS'http://www.hm.com/us/product/50082?article=50082-D'
p240
aS'http://www.hm.com/us/product/55436?article=55436-A'
p241
aS'http://www.hm.com/us/product/46629?article=46629-D'
p242
aS'http://www.hm.com/us/product/48189?article=48189-D'
p243
aS'http://www.hm.com/us/product/47543?article=47543-B'
p244
aS'http://www.hm.com/us/product/22040?article=22040-A'
p245
aS'http://www.hm.com/us/product/60228?article=60228-A'
p246
aS'http://www.hm.com/us/product/56576?article=56576-A'
p247
aS'http://www.hm.com/us/product/63280?article=63280-A'
p248
aS'http://www.hm.com/us/product/54513?article=54513-D'
p249
aS'http://www.hm.com/us/product/63938?article=63938-A'
p250
aS'http://www.hm.com/us/product/53720?article=53720-A'
p251
aS'http://www.hm.com/us/product/41619?article=41619-T'
p252
aS'http://www.hm.com/us/product/61284?article=61284-A'
p253
aS'http://www.hm.com/us/product/53809?article=53809-A'
p254
aS'http://www.hm.com/us/product/64313?article=64313-B'
p255
aS'http://www.hm.com/us/product/61714?article=61714-B'
p256
aS'http://www.hm.com/us/product/51140?article=51140-D'
p257
aS'http://www.hm.com/us/product/53617?article=53617-B'
p258
aS'http://www.hm.com/us/product/48256?article=48256-B'
p259
aS'http://www.hm.com/us/product/56395?article=56395-A'
p260
aS'http://www.hm.com/us/product/07062?article=07062-B'
p261
aS'http://www.hm.com/us/product/60122?article=60122-B'
p262
aS'http://www.hm.com/us/product/01998?article=01998-X'
p263
aS'http://www.hm.com/us/product/53627?article=53627-A'
p264
aS'http://www.hm.com/us/product/52275?article=52275-A'
p265
aS'http://www.hm.com/us/product/63939?article=63939-B'
p266
aS'http://www.hm.com/us/product/62575?article=62575-A'
p267
aS'http://www.hm.com/us/product/58407?article=58407-A'
p268
aS'http://www.hm.com/us/product/58366?article=58366-B'
p269
aS'http://www.hm.com/us/product/57307?article=57307-A'
p270
aS'http://www.hm.com/us/product/60779?article=60779-A'
p271
aS'http://www.hm.com/us/product/67206?article=67206-A'
p272
aS'http://www.hm.com/us/product/60633?article=60633-B'
p273
aS'http://www.hm.com/us/product/50028?article=50028-A'
p274
aS'http://www.hm.com/us/product/59710?article=59710-B'
p275
aS'http://www.hm.com/us/product/60199?article=60199-B'
p276
aS'http://www.hm.com/us/product/60755?article=60755-B'
p277
aS'http://www.hm.com/us/product/57015?article=57015-A'
p278
aS'http://www.hm.com/us/product/56898?article=56898-B'
p279
aS'http://www.hm.com/us/product/61413?article=61413-B'
p280
aS'http://www.hm.com/us/product/67866?article=67866-C'
p281
aS'http://www.hm.com/us/product/56396?article=56396-A'
p282
aS'http://www.hm.com/us/product/51605?article=51605-E'
p283
aS'http://www.hm.com/us/product/32230?article=32230-D'
p284
aS'http://www.hm.com/us/product/49297?article=49297-A'
p285
aS'http://www.hm.com/us/product/54945?article=54945-A'
p286
aS'http://www.hm.com/us/product/56256?article=56256-A'
p287
aS'http://www.hm.com/us/product/52334?article=52334-B'
p288
aS'http://www.hm.com/us/product/60755?article=60755-C'
p289
aS'http://www.hm.com/us/product/53174?article=53174-B'
p290
aS'http://www.hm.com/us/product/52177?article=52177-B'
p291
aS'http://www.hm.com/us/product/54219?article=54219-B'
p292
aS'http://www.hm.com/us/product/46127?article=46127-J'
p293
aS'http://www.hm.com/us/product/61011?article=61011-A'
p294
aS'http://www.hm.com/us/product/53715?article=53715-A'
p295
aS'http://www.hm.com/us/product/62022?article=62022-B'
p296
aS'http://www.hm.com/us/product/63085?article=63085-A'
p297
aS'http://www.hm.com/us/product/57036?article=57036-C'
p298
aS'http://www.hm.com/us/product/61617?article=61617-A'
p299
aS'http://www.hm.com/us/product/54001?article=54001-B'
p300
aS'http://www.hm.com/us/product/51618?article=51618-A'
p301
aS'http://www.hm.com/us/product/52524?article=52524-B'
p302
aS'http://www.hm.com/us/product/55030?article=55030-A'
p303
aS'http://www.hm.com/us/product/57646?article=57646-B'
p304
aS'http://www.hm.com/us/product/57545?article=57545-A'
p305
aS'http://www.hm.com/us/product/58535?article=58535-B'
p306
aS'http://www.hm.com/us/product/53945?article=53945-B'
p307
aS'http://www.hm.com/us/product/62543?article=62543-A'
p308
aS'http://www.hm.com/us/product/58683?article=58683-A'
p309
aS'http://www.hm.com/us/product/54766?article=54766-B'
p310
aS'http://www.hm.com/us/product/58242?article=58242-A'
p311
aS'http://www.hm.com/us/product/56721?article=56721-C'
p312
aS'http://www.hm.com/us/product/53613?article=53613-A'
p313
aS'http://www.hm.com/us/product/55632?article=55632-A'
p314
aS'http://www.hm.com/us/product/55222?article=55222-A'
p315
aS'http://www.hm.com/us/product/34640?article=34640-C'
p316
aS'http://www.hm.com/us/product/57037?article=57037-A'
p317
aS'http://www.hm.com/us/product/42047?article=42047-D'
p318
aS'http://www.hm.com/us/product/98927?article=98927-K'
p319
aS'http://www.hm.com/us/product/46384?article=46384-B'
p320
aS'http://www.hm.com/us/product/56074?article=56074-B'
p321
aS'http://www.hm.com/us/product/57489?article=57489-B'
p322
aS'http://www.hm.com/us/product/58146?article=58146-A'
p323
aS'http://www.hm.com/us/product/61760?article=61760-A'
p324
aS'http://www.hm.com/us/product/59700?article=59700-A'
p325
aS'http://www.hm.com/us/product/48435?article=48435-B'
p326
aS'http://www.hm.com/us/product/32409?article=32409-A'
p327
aS'http://www.hm.com/us/product/61719?article=61719-A'
p328
aS'http://www.hm.com/us/product/43393?article=43393-A'
p329
aS'http://www.hm.com/us/product/29644?article=29644-F'
p330
aS'http://www.hm.com/us/product/46141?article=46141-A'
p331
aS'http://www.hm.com/us/product/53892?article=53892-D'
p332
aS'http://www.hm.com/us/product/64640?article=64640-A'
p333
aS'http://www.hm.com/us/product/64050?article=64050-C'
p334
aS'http://www.hm.com/us/product/52334?article=52334-D'
p335
aS'http://www.hm.com/us/product/51298?article=51298-B'
p336
aS'http://www.hm.com/us/product/56301?article=56301-A'
p337
aS'http://www.hm.com/us/product/54044?article=54044-A'
p338
aS'http://www.hm.com/us/product/56321?article=56321-A'
p339
aS'http://www.hm.com/us/product/54759?article=54759-B'
p340
aS'http://www.hm.com/us/product/56331?article=56331-A'
p341
aS'http://www.hm.com/us/product/50402?article=50402-A'
p342
aS'http://www.hm.com/us/product/52688?article=52688-D'
p343
aS'http://www.hm.com/us/product/55441?article=55441-B'
p344
aS'http://www.hm.com/us/product/30703?article=30703-F'
p345
aS'http://www.hm.com/us/product/54260?article=54260-A'
p346
aS'http://www.hm.com/us/product/47543?article=47543-F'
p347
aS'http://www.hm.com/us/product/46248?article=46248-A'
p348
aS'http://www.hm.com/us/product/53945?article=53945-A'
p349
aS'http://www.hm.com/us/product/59506?article=59506-A'
p350
aS'http://www.hm.com/us/product/62622?article=62622-A'
p351
aS'http://www.hm.com/us/product/58186?article=58186-B'
p352
aS'http://www.hm.com/us/product/57489?article=57489-A'
p353
aS'http://www.hm.com/us/product/61283?article=61283-A'
p354
aS'http://www.hm.com/us/product/40681?article=40681-E'
p355
aS'http://www.hm.com/us/product/56120?article=56120-B'
p356
aS'http://www.hm.com/us/product/59787?article=59787-B'
p357
aS'http://www.hm.com/us/product/56062?article=56062-A'
p358
aS'http://www.hm.com/us/product/43586?article=43586-D'
p359
aS'http://www.hm.com/us/product/48435?article=48435-A'
p360
aS'http://www.hm.com/us/product/53116?article=53116-A'
p361
aS'http://www.hm.com/us/product/50900?article=50900-B'
p362
aS'http://www.hm.com/us/product/57151?article=57151-A'
p363
aS'http://www.hm.com/us/product/52119?article=52119-D'
p364
aS'http://www.hm.com/us/product/51545?article=51545-A'
p365
aS'http://www.hm.com/us/product/59184?article=59184-A'
p366
aS'http://www.hm.com/us/product/62575?article=62575-B'
p367
aS'http://www.hm.com/us/product/57282?article=57282-A'
p368
aS'http://www.hm.com/us/product/60647?article=60647-A'
p369
aS'http://www.hm.com/us/product/53495?article=53495-B'
p370
aS'http://www.hm.com/us/product/59877?article=59877-B'
p371
aS'http://www.hm.com/us/product/61298?article=61298-A'
p372
aS'http://www.hm.com/us/product/61012?article=61012-A'
p373
aS'http://www.hm.com/us/product/58444?article=58444-A'
p374
aS'http://www.hm.com/us/product/59701?article=59701-A'
p375
aS'http://www.hm.com/us/product/60358?article=60358-A'
p376
aS'http://www.hm.com/us/product/30703?article=30703-H'
p377
aS'http://www.hm.com/us/product/62791?article=62791-A'
p378
aS'http://www.hm.com/us/product/52984?article=52984-A'
p379
aS'http://www.hm.com/us/product/54965?article=54965-D'
p380
aS'http://www.hm.com/us/product/57922?article=57922-A'
p381
aS'http://www.hm.com/us/product/20595?article=20595-A'
p382
aS'http://www.hm.com/us/product/62423?article=62423-A'
p383
aS'http://www.hm.com/us/product/58306?article=58306-A'
p384
aS'http://www.hm.com/us/product/54237?article=54237-C'
p385
aS'http://www.hm.com/us/product/39864?article=39864-A'
p386
aS'http://www.hm.com/us/product/53294?article=53294-E'
p387
aS'http://www.hm.com/us/product/52688?article=52688-C'
p388
aS'http://www.hm.com/us/product/47003?article=47003-A'
p389
aS'http://www.hm.com/us/product/51370?article=51370-A'
p390
aS'http://www.hm.com/us/product/52688?article=52688-F'
p391
aS'http://www.hm.com/us/product/58175?article=58175-A'
p392
aS'http://www.hm.com/us/product/59710?article=59710-A'
p393
aS'http://www.hm.com/us/product/43390?article=43390-A'
p394
aS'http://www.hm.com/us/product/63941?article=63941-D'
p395
aS'http://www.hm.com/us/product/52988?article=52988-B'
p396
aS'http://www.hm.com/us/product/59534?article=59534-A'
p397
aS'http://www.hm.com/us/product/53426?article=53426-B'
p398
aS'http://www.hm.com/us/product/56898?article=56898-C'
p399
aS'http://www.hm.com/us/product/60755?article=60755-A'
p400
aS'http://www.hm.com/us/product/56608?article=56608-D'
p401
aS'http://www.hm.com/us/product/52985?article=52985-A'
p402
aS'http://www.hm.com/us/product/60871?article=60871-A'
p403
aS'http://www.hm.com/us/product/52452?article=52452-B'
p404
aS'http://www.hm.com/us/product/49715?article=49715-A'
p405
aS'http://www.hm.com/us/product/01915?article=01915-K'
p406
aS'http://www.hm.com/us/product/57646?article=57646-A'
p407
aS'http://www.hm.com/us/product/66858?article=66858-B'
p408
aS'http://www.hm.com/us/product/38523?article=38523-C'
p409
aS'http://www.hm.com/us/product/53097?article=53097-A'
p410
aS'http://www.hm.com/us/product/57037?article=57037-C'
p411
aS'http://www.hm.com/us/product/56309?article=56309-A'
p412
aS'http://www.hm.com/us/product/49976?article=49976-A'
p413
aS'http://www.hm.com/us/product/56922?article=56922-A'
p414
aS'http://www.hm.com/us/product/41772?article=41772-A'
p415
aS'http://www.hm.com/us/product/45844?article=45844-A'
p416
aS'http://www.hm.com/us/product/01177?article=01177-A'
p417
aS'http://www.hm.com/us/product/60764?article=60764-A'
p418
aS'http://www.hm.com/us/product/60878?article=60878-A'
p419
aS'http://www.hm.com/us/product/52737?article=52737-A'
p420
aS'http://www.hm.com/us/product/49360?article=49360-C'
p421
aS'http://www.hm.com/us/product/56604?article=56604-B'
p422
aS'http://www.hm.com/us/product/60283?article=60283-A'
p423
aS'http://www.hm.com/us/product/54219?article=54219-A'
p424
aS'http://www.hm.com/us/product/57036?article=57036-E'
p425
aS'http://www.hm.com/us/product/58186?article=58186-C'
p426
aS'http://www.hm.com/us/product/61639?article=61639-A'
p427
aS'http://www.hm.com/us/product/59182?article=59182-A'
p428
aS'http://www.hm.com/us/product/57237?article=57237-A'
p429
aS'http://www.hm.com/us/product/60197?article=60197-F'
p430
aS'http://www.hm.com/us/product/59302?article=59302-A'
p431
aS'http://www.hm.com/us/product/55562?article=55562-A'
p432
aS'http://www.hm.com/us/product/58444?article=58444-B'
p433
aS'http://www.hm.com/us/product/47511?article=47511-D'
p434
aS'http://www.hm.com/us/product/53251?article=53251-A'
p435
aS'http://www.hm.com/us/product/55632?article=55632-B'
p436
aS'http://www.hm.com/us/product/53085?article=53085-A'
p437
aS'http://www.hm.com/us/product/09982?article=09982-A'
p438
aS'http://www.hm.com/us/product/67866?article=67866-A'
p439
aS'http://www.hm.com/us/product/58090?article=58090-A'
p440
aS'http://www.hm.com/us/product/45202?article=45202-A'
p441
aS'http://www.hm.com/us/product/52177?article=52177-C'
p442
aS'http://www.hm.com/us/product/57435?article=57435-B'
p443
aS'http://www.hm.com/us/product/58551?article=58551-A'
p444
aS'http://www.hm.com/us/product/53892?article=53892-A'
p445
aS'http://www.hm.com/us/product/62022?article=62022-A'
p446
aS'http://www.hm.com/us/product/57950?article=57950-A'
p447
aS'http://www.hm.com/us/product/47213?article=47213-C'
p448
aS'http://www.hm.com/us/product/57953?article=57953-A'
p449
aS'http://www.hm.com/us/product/02050?article=02050-B'
p450
aS'http://www.hm.com/us/product/55778?article=55778-B'
p451
aS'http://www.hm.com/us/product/58131?article=58131-A'
p452
aS'http://www.hm.com/us/product/53619?article=53619-A'
p453
aS'http://www.hm.com/us/product/62763?article=62763-A'
p454
aS'http://www.hm.com/us/product/59710?article=59710-D'
p455
aS'http://www.hm.com/us/product/57849?article=57849-A'
p456
aS'http://www.hm.com/us/product/54344?article=54344-A'
p457
aS'http://www.hm.com/us/product/61885?article=61885-A'
p458
aS'http://www.hm.com/us/product/55194?article=55194-A'
p459
aS'http://www.hm.com/us/product/44015?article=44015-B'
p460
aS'http://www.hm.com/us/product/54519?article=54519-B'
p461
aS'http://www.hm.com/us/product/57311?article=57311-B'
p462
aS'http://www.hm.com/us/product/62791?article=62791-B'
p463
aS'http://www.hm.com/us/product/61731?article=61731-B'
p464
aS'http://www.hm.com/us/product/57890?article=57890-A'
p465
aS'http://www.hm.com/us/product/56608?article=56608-C'
p466
aS'http://www.hm.com/us/product/46127?article=46127-C'
p467
aS'http://www.hm.com/us/product/33089?article=33089-A'
p468
aS'http://www.hm.com/us/product/60087?article=60087-C'
p469
aS'http://www.hm.com/us/product/57609?article=57609-A'
p470
aS'http://www.hm.com/us/product/59787?article=59787-A'
p471
aS'http://www.hm.com/us/product/57243?article=57243-A'
p472
aS'http://www.hm.com/us/product/62432?article=62432-A'
p473
aS'http://www.hm.com/us/product/55175?article=55175-A'
p474
aS'http://www.hm.com/us/product/50699?article=50699-A'
p475
aS'http://www.hm.com/us/product/60122?article=60122-A'
p476
aS'http://www.hm.com/us/product/57646?article=57646-C'
p477
aS'http://www.hm.com/us/product/56946?article=56946-B'
p478
aS'http://www.hm.com/us/product/59885?article=59885-A'
p479
aS'http://www.hm.com/us/product/55590?article=55590-A'
p480
aS'http://www.hm.com/us/product/54574?article=54574-B'
p481
aS'http://www.hm.com/us/product/52988?article=52988-A'
p482
aS'http://www.hm.com/us/product/51155?article=51155-B'
p483
aS'http://www.hm.com/us/product/52301?article=52301-A'
p484
aS'http://www.hm.com/us/product/59758?article=59758-A'
p485
aS'http://www.hm.com/us/product/55551?article=55551-A'
p486
aS'http://www.hm.com/us/product/49036?article=49036-C'
p487
aS'http://www.hm.com/us/product/56241?article=56241-B'
p488
aS'http://www.hm.com/us/product/35664?article=35664-B'
p489
aS'http://www.hm.com/us/product/54666?article=54666-A'
p490
aS'http://www.hm.com/us/product/55565?article=55565-A'
p491
aS'http://www.hm.com/us/product/62575?article=62575-C'
p492
aS'http://www.hm.com/us/product/54965?article=54965-C'
p493
aS'http://www.hm.com/us/product/58346?article=58346-B'
p494
aS'http://www.hm.com/us/product/54894?article=54894-A'
p495
aS'http://www.hm.com/us/product/20595?article=20595-B'
p496
aS'http://www.hm.com/us/product/60575?article=60575-A'
p497
aS'http://www.hm.com/us/product/45622?article=45622-A'
p498
aS'http://www.hm.com/us/product/34748?article=34748-B'
p499
aS'http://www.hm.com/us/product/48346?article=48346-A'
p500
aS'http://www.hm.com/us/product/55804?article=55804-B'
p501
aS'http://www.hm.com/us/product/53311?article=53311-C'
p502
aS'http://www.hm.com/us/product/53519?article=53519-B'
p503
aS'http://www.hm.com/us/product/55624?article=55624-A'
p504
aS'http://www.hm.com/us/product/53311?article=53311-B'
p505
aS'http://www.hm.com/us/product/53311?article=53311-A'
p506
aS'http://www.hm.com/us/product/38013?article=38013-T'
p507
aS'http://www.hm.com/us/product/55111?article=55111-B'
p508
aS'http://www.hm.com/us/product/46649?article=46649-A'
p509
aS'http://www.hm.com/us/product/56914?article=56914-A'
p510
aS'http://www.hm.com/us/product/59522?article=59522-A'
p511
aS'http://www.hm.com/us/product/53530?article=53530-A'
p512
aS'http://www.hm.com/us/product/55221?article=55221-A'
p513
aS'http://www.hm.com/us/product/49468?article=49468-A'
p514
aS'http://www.hm.com/us/product/57576?article=57576-B'
p515
aS'http://www.hm.com/us/product/49299?article=49299-A'
p516
aS'http://www.hm.com/us/product/59078?article=59078-A'
p517
aS'http://www.hm.com/us/product/34454?article=34454-A'
p518
aS'http://www.hm.com/us/product/52293?article=52293-A'
p519
aS'http://www.hm.com/us/product/57540?article=57540-A'
p520
aS'http://www.hm.com/us/product/64901?article=64901-B'
p521
aS'http://www.hm.com/us/product/38426?article=38426-D'
p522
aS'http://www.hm.com/us/product/50404?article=50404-C'
p523
aS'http://www.hm.com/us/product/13904?article=13904-A'
p524
aS'http://www.hm.com/us/product/53918?article=53918-B'
p525
aS'http://www.hm.com/us/product/61885?article=61885-B'
p526
aS'http://www.hm.com/us/product/56608?article=56608-B'
p527
aS'http://www.hm.com/us/product/45932?article=45932-A'
p528
aS'http://www.hm.com/us/product/58240?article=58240-A'
p529
aS'http://www.hm.com/us/product/64901?article=64901-A'
p530
aS'http://www.hm.com/us/product/63343?article=63343-B'
p531
aS'http://www.hm.com/us/product/38298?article=38298-Q'
p532
aS'http://www.hm.com/us/product/58535?article=58535-A'
p533
aS'http://www.hm.com/us/product/60217?article=60217-E'
p534
aS'http://www.hm.com/us/product/40345?article=40345-F'
p535
aS'http://www.hm.com/us/product/53519?article=53519-A'
p536
aS'http://www.hm.com/us/product/48356?article=48356-A'
p537
aS'http://www.hm.com/us/product/49772?article=49772-A'
p538
aS'http://www.hm.com/us/product/49465?article=49465-A'
p539
aS'http://www.hm.com/us/product/44940?article=44940-A'
p540
aS'http://www.hm.com/us/product/50189?article=50189-B'
p541
aS'http://www.hm.com/us/product/58097?article=58097-A'
p542
aS'http://www.hm.com/us/product/52740?article=52740-A'
p543
aS'http://www.hm.com/us/product/47511?article=47511-C'
p544
aS'http://www.hm.com/us/product/55804?article=55804-A'
p545
aS'http://www.hm.com/us/product/58992?article=58992-A'
p546
aS'http://www.hm.com/us/product/30111?article=30111-A'
p547
aS'http://www.hm.com/us/product/34933?article=34933-A'
p548
aS'http://www.hm.com/us/product/53599?article=53599-A'
p549
aS'http://www.hm.com/us/product/57370?article=57370-A'
p550
aS'http://www.hm.com/us/product/35655?article=35655-A'
p551
aS'http://www.hm.com/us/product/58179?article=58179-B'
p552
aS'http://www.hm.com/us/product/49465?article=49465-B'
p553
aS'http://www.hm.com/us/product/32703?article=32703-A'
p554
aS'http://www.hm.com/us/product/48875?article=48875-A'
p555
aS'http://www.hm.com/us/product/38391?article=38391-B'
p556
aS'http://www.hm.com/us/product/85412?article=85412-A'
p557
aS'http://www.hm.com/us/product/53269?article=53269-A'
p558
aS'http://www.hm.com/us/product/58547?article=58547-A'
p559
aS'http://www.hm.com/us/product/39280?article=39280-A'
p560
aS'http://www.hm.com/us/product/02130?article=02130-A'
p561
aS'http://www.hm.com/us/product/51621?article=51621-A'
p562
aS'http://www.hm.com/us/product/46177?article=46177-E'
p563
aS'http://www.hm.com/us/product/58869?article=58869-A'
p564
aS'http://www.hm.com/us/product/58546?article=58546-A'
p565
aS'http://www.hm.com/us/product/49771?article=49771-A'
p566
aS'http://www.hm.com/us/product/56502?article=56502-B'
p567
aS'http://www.hm.com/us/product/55030?article=55030-C'
p568
aS'http://www.hm.com/us/product/51309?article=51309-A'
p569
aS'http://www.hm.com/us/product/10393?article=10393-B'
p570
aS'http://www.hm.com/us/product/57662?article=57662-A'
p571
aS'http://www.hm.com/us/product/98927?article=98927-L'
p572
aS'http://www.hm.com/us/product/53595?article=53595-A'
p573
aS'http://www.hm.com/us/product/57435?article=57435-A'
p574
aS'http://www.hm.com/us/product/59302?article=59302-C'
p575
aS'http://www.hm.com/us/product/54703?article=54703-B'
p576
aS'http://www.hm.com/us/product/58860?article=58860-B'
p577
aS'http://www.hm.com/us/product/55482?article=55482-A'
p578
aS'http://www.hm.com/us/product/56433?article=56433-A'
p579
aS'http://www.hm.com/us/product/31343?article=31343-D'
p580
aS'http://www.hm.com/us/product/46648?article=46648-A'
p581
aS'http://www.hm.com/us/product/54703?article=54703-A'
p582
aS'http://www.hm.com/us/product/56360?article=56360-A'
p583
aS'http://www.hm.com/us/product/52943?article=52943-A'
p584
aS'http://www.hm.com/us/product/38753?article=38753-A'
p585
aS'http://www.hm.com/us/product/53120?article=53120-A'
p586
aS'http://www.hm.com/us/product/32876?article=32876-A'
p587
aS'http://www.hm.com/us/product/85332?article=85332-S'
p588
aS'http://www.hm.com/us/product/58179?article=58179-A'
p589
aS'http://www.hm.com/us/product/53459?article=53459-A'
p590
aS'http://www.hm.com/us/product/55030?article=55030-B'
p591
aS'http://www.hm.com/us/product/59849?article=59849-A'
p592
aS'http://www.hm.com/us/product/53149?article=53149-E'
p593
aS'http://www.hm.com/us/product/53251?article=53251-B'
p594
aS'http://www.hm.com/us/product/39151?article=39151-A'
p595
aS'http://www.hm.com/us/product/83939?article=83939-A'
p596
aS'http://www.hm.com/us/product/59121?article=59121-A'
p597
aS'http://www.hm.com/us/product/34871?article=34871-A'
p598
aS'http://www.hm.com/us/product/53918?article=53918-A'
p599
aS'http://www.hm.com/us/product/48015?article=48015-A'
p600
aS'http://www.hm.com/us/product/49559?article=49559-A'
p601
aS'http://www.hm.com/us/product/45714?article=45714-A'
p602
aS'http://www.hm.com/us/product/56434?article=56434-A'
p603
aS'http://www.hm.com/us/product/83587?article=83587-B'
p604
aS'http://www.hm.com/us/product/40315?article=40315-E'
p605
aS'http://www.hm.com/us/product/38386?article=38386-B'
p606
aS'http://www.hm.com/us/product/34951?article=34951-A'
p607
a.