(lp0
S'http://www.hm.com/us/product/65680?article=65680-A'
p1
aS'http://www.hm.com/us/product/64622?article=64622-B'
p2
aS'http://www.hm.com/us/product/68276?article=68276-B'
p3
aS'http://www.hm.com/us/product/66637?article=66637-B'
p4
aS'http://www.hm.com/us/product/69157?article=69157-A'
p5
aS'http://www.hm.com/us/product/65393?article=65393-A'
p6
aS'http://www.hm.com/us/product/67223?article=67223-A'
p7
aS'http://www.hm.com/us/product/67006?article=67006-D'
p8
aS'http://www.hm.com/us/product/46233?article=46233-A'
p9
aS'http://www.hm.com/us/product/67092?article=67092-A'
p10
aS'http://www.hm.com/us/product/69690?article=69690-A'
p11
aS'http://www.hm.com/us/product/62696?article=62696-A'
p12
aS'http://www.hm.com/us/product/67006?article=67006-A'
p13
aS'http://www.hm.com/us/product/66611?article=66611-A'
p14
aS'http://www.hm.com/us/product/65393?article=65393-D'
p15
aS'http://www.hm.com/us/product/64624?article=64624-A'
p16
aS'http://www.hm.com/us/product/67006?article=67006-B'
p17
aS'http://www.hm.com/us/product/64062?article=64062-A'
p18
aS'http://www.hm.com/us/product/67452?article=67452-B'
p19
aS'http://www.hm.com/us/product/69492?article=69492-B'
p20
aS'http://www.hm.com/us/product/67934?article=67934-B'
p21
aS'http://www.hm.com/us/product/70652?article=70652-A'
p22
aS'http://www.hm.com/us/product/67006?article=67006-C'
p23
aS'http://www.hm.com/us/product/65583?article=65583-B'
p24
aS'http://www.hm.com/us/product/67934?article=67934-C'
p25
aS'http://www.hm.com/us/product/64932?article=64932-B'
p26
aS'http://www.hm.com/us/product/65397?article=65397-A'
p27
aS'http://www.hm.com/us/product/65393?article=65393-C'
p28
aS'http://www.hm.com/us/product/62975?article=62975-F'
p29
aS'http://www.hm.com/us/product/67223?article=67223-D'
p30
aS'http://www.hm.com/us/product/69492?article=69492-A'
p31
aS'http://www.hm.com/us/product/70750?article=70750-A'
p32
aS'http://www.hm.com/us/product/69690?article=69690-B'
p33
aS'http://www.hm.com/us/product/66232?article=66232-B'
p34
aS'http://www.hm.com/us/product/56522?article=56522-C'
p35
aS'http://www.hm.com/us/product/67659?article=67659-A'
p36
aS'http://www.hm.com/us/product/65336?article=65336-A'
p37
aS'http://www.hm.com/us/product/64880?article=64880-B'
p38
aS'http://www.hm.com/us/product/38930?article=38930-F'
p39
aS'http://www.hm.com/us/product/67493?article=67493-A'
p40
aS'http://www.hm.com/us/product/56522?article=56522-E'
p41
aS'http://www.hm.com/us/product/61712?article=61712-B'
p42
aS'http://www.hm.com/us/product/66350?article=66350-B'
p43
aS'http://www.hm.com/us/product/56522?article=56522-F'
p44
aS'http://www.hm.com/us/product/61242?article=61242-J'
p45
aS'http://www.hm.com/us/product/64198?article=64198-C'
p46
aS'http://www.hm.com/us/product/64198?article=64198-A'
p47
aS'http://www.hm.com/us/product/64198?article=64198-E'
p48
aS'http://www.hm.com/us/product/55582?article=55582-F'
p49
aS'http://www.hm.com/us/product/46245?article=46245-D'
p50
aS'http://www.hm.com/us/product/60675?article=60675-P'
p51
aS'http://www.hm.com/us/product/59683?article=59683-B'
p52
aS'http://www.hm.com/us/product/61271?article=61271-A'
p53
aS'http://www.hm.com/us/product/64198?article=64198-D'
p54
aS'http://www.hm.com/us/product/61271?article=61271-B'
p55
aS'http://www.hm.com/us/product/52012?article=52012-A'
p56
aS'http://www.hm.com/us/product/65419?article=65419-C'
p57
aS'http://www.hm.com/us/product/59538?article=59538-F'
p58
aS'http://www.hm.com/us/product/59538?article=59538-G'
p59
aS'http://www.hm.com/us/product/63141?article=63141-A'
p60
aS'http://www.hm.com/us/product/60591?article=60591-A'
p61
aS'http://www.hm.com/us/product/67202?article=67202-A'
p62
aS'http://www.hm.com/us/product/61870?article=61870-B'
p63
aS'http://www.hm.com/us/product/62157?article=62157-A'
p64
aS'http://www.hm.com/us/product/46081?article=46081-B'
p65
aS'http://www.hm.com/us/product/59539?article=59539-B'
p66
aS'http://www.hm.com/us/product/67609?article=67609-A'
p67
aS'http://www.hm.com/us/product/61396?article=61396-A'
p68
aS'http://www.hm.com/us/product/60844?article=60844-A'
p69
aS'http://www.hm.com/us/product/63206?article=63206-B'
p70
aS'http://www.hm.com/us/product/62820?article=62820-E'
p71
aS'http://www.hm.com/us/product/67235?article=67235-C'
p72
aS'http://www.hm.com/us/product/48777?article=48777-B'
p73
aS'http://www.hm.com/us/product/65563?article=65563-A'
p74
aS'http://www.hm.com/us/product/61244?article=61244-A'
p75
aS'http://www.hm.com/us/product/54850?article=54850-A'
p76
aS'http://www.hm.com/us/product/49881?article=49881-A'
p77
aS'http://www.hm.com/us/product/64245?article=64245-D'
p78
aS'http://www.hm.com/us/product/67929?article=67929-A'
p79
aS'http://www.hm.com/us/product/13740?article=13740-H'
p80
aS'http://www.hm.com/us/product/54630?article=54630-I'
p81
aS'http://www.hm.com/us/product/68626?article=68626-A'
p82
aS'http://www.hm.com/us/product/65627?article=65627-B'
p83
aS'http://www.hm.com/us/product/48777?article=48777-A'
p84
aS'http://www.hm.com/us/product/67823?article=67823-A'
p85
aS'http://www.hm.com/us/product/63178?article=63178-A'
p86
aS'http://www.hm.com/us/product/67676?article=67676-A'
p87
aS'http://www.hm.com/us/product/58708?article=58708-B'
p88
aS'http://www.hm.com/us/product/52088?article=52088-F'
p89
aS'http://www.hm.com/us/product/64042?article=64042-A'
p90
aS'http://www.hm.com/us/product/59793?article=59793-A'
p91
aS'http://www.hm.com/us/product/69540?article=69540-D'
p92
aS'http://www.hm.com/us/product/61090?article=61090-B'
p93
aS'http://www.hm.com/us/product/59588?article=59588-A'
p94
aS'http://www.hm.com/us/product/65705?article=65705-B'
p95
aS'http://www.hm.com/us/product/61244?article=61244-D'
p96
aS'http://www.hm.com/us/product/67269?article=67269-A'
p97
aS'http://www.hm.com/us/product/62332?article=62332-A'
p98
aS'http://www.hm.com/us/product/65732?article=65732-A'
p99
aS'http://www.hm.com/us/product/59521?article=59521-D'
p100
aS'http://www.hm.com/us/product/65225?article=65225-A'
p101
aS'http://www.hm.com/us/product/67667?article=67667-D'
p102
aS'http://www.hm.com/us/product/63144?article=63144-C'
p103
aS'http://www.hm.com/us/product/61446?article=61446-G'
p104
aS'http://www.hm.com/us/product/62344?article=62344-B'
p105
aS'http://www.hm.com/us/product/63769?article=63769-A'
p106
aS'http://www.hm.com/us/product/60993?article=60993-B'
p107
aS'http://www.hm.com/us/product/62480?article=62480-A'
p108
aS'http://www.hm.com/us/product/55457?article=55457-B'
p109
aS'http://www.hm.com/us/product/64482?article=64482-A'
p110
aS'http://www.hm.com/us/product/63144?article=63144-A'
p111
aS'http://www.hm.com/us/product/63545?article=63545-B'
p112
aS'http://www.hm.com/us/product/66350?article=66350-C'
p113
aS'http://www.hm.com/us/product/59549?article=59549-B'
p114
aS'http://www.hm.com/us/product/67966?article=67966-D'
p115
aS'http://www.hm.com/us/product/63084?article=63084-A'
p116
aS'http://www.hm.com/us/product/63815?article=63815-B'
p117
aS'http://www.hm.com/us/product/69676?article=69676-A'
p118
aS'http://www.hm.com/us/product/63144?article=63144-B'
p119
aS'http://www.hm.com/us/product/52957?article=52957-D'
p120
aS'http://www.hm.com/us/product/55410?article=55410-C'
p121
aS'http://www.hm.com/us/product/66624?article=66624-B'
p122
aS'http://www.hm.com/us/product/59142?article=59142-A'
p123
aS'http://www.hm.com/us/product/65437?article=65437-A'
p124
aS'http://www.hm.com/us/product/69184?article=69184-A'
p125
aS'http://www.hm.com/us/product/63468?article=63468-B'
p126
aS'http://www.hm.com/us/product/60993?article=60993-A'
p127
aS'http://www.hm.com/us/product/64983?article=64983-A'
p128
aS'http://www.hm.com/us/product/65627?article=65627-A'
p129
aS'http://www.hm.com/us/product/58828?article=58828-A'
p130
aS'http://www.hm.com/us/product/64739?article=64739-A'
p131
aS'http://www.hm.com/us/product/65689?article=65689-A'
p132
aS'http://www.hm.com/us/product/63890?article=63890-A'
p133
aS'http://www.hm.com/us/product/34547?article=34547-A'
p134
aS'http://www.hm.com/us/product/66963?article=66963-C'
p135
aS'http://www.hm.com/us/product/68422?article=68422-A'
p136
aS'http://www.hm.com/us/product/69541?article=69541-A'
p137
aS'http://www.hm.com/us/product/65194?article=65194-B'
p138
aS'http://www.hm.com/us/product/68226?article=68226-A'
p139
aS'http://www.hm.com/us/product/68369?article=68369-B'
p140
aS'http://www.hm.com/us/product/65198?article=65198-A'
p141
aS'http://www.hm.com/us/product/60761?article=60761-A'
p142
aS'http://www.hm.com/us/product/56723?article=56723-A'
p143
aS'http://www.hm.com/us/product/24792?article=24792-A'
p144
aS'http://www.hm.com/us/product/44402?article=44402-C'
p145
aS'http://www.hm.com/us/product/40719?article=40719-B'
p146
aS'http://www.hm.com/us/product/61888?article=61888-B'
p147
aS'http://www.hm.com/us/product/63224?article=63224-B'
p148
aS'http://www.hm.com/us/product/78725?article=78725-N'
p149
aS'http://www.hm.com/us/product/43709?article=43709-D'
p150
aS'http://www.hm.com/us/product/55764?article=55764-A'
p151
aS'http://www.hm.com/us/product/62075?article=62075-A'
p152
aS'http://www.hm.com/us/product/58145?article=58145-A'
p153
aS'http://www.hm.com/us/product/64236?article=64236-A'
p154
aS'http://www.hm.com/us/product/63544?article=63544-A'
p155
aS'http://www.hm.com/us/product/65001?article=65001-A'
p156
aS'http://www.hm.com/us/product/58645?article=58645-C'
p157
aS'http://www.hm.com/us/product/64623?article=64623-C'
p158
aS'http://www.hm.com/us/product/61117?article=61117-B'
p159
aS'http://www.hm.com/us/product/63544?article=63544-D'
p160
aS'http://www.hm.com/us/product/62597?article=62597-A'
p161
aS'http://www.hm.com/us/product/89119?article=89119-M'
p162
aS'http://www.hm.com/us/product/62642?article=62642-A'
p163
aS'http://www.hm.com/us/product/62613?article=62613-E'
p164
aS'http://www.hm.com/us/product/51585?article=51585-A'
p165
aS'http://www.hm.com/us/product/63850?article=63850-B'
p166
aS'http://www.hm.com/us/product/58400?article=58400-A'
p167
aS'http://www.hm.com/us/product/61203?article=61203-A'
p168
aS'http://www.hm.com/us/product/34392?article=34392-C'
p169
aS'http://www.hm.com/us/product/62983?article=62983-B'
p170
aS'http://www.hm.com/us/product/61841?article=61841-A'
p171
aS'http://www.hm.com/us/product/56852?article=56852-A'
p172
aS'http://www.hm.com/us/product/38478?article=38478-C'
p173
aS'http://www.hm.com/us/product/60221?article=60221-B'
p174
aS'http://www.hm.com/us/product/58966?article=58966-B'
p175
aS'http://www.hm.com/us/product/61419?article=61419-D'
p176
aS'http://www.hm.com/us/product/53305?article=53305-A'
p177
aS'http://www.hm.com/us/product/63533?article=63533-E'
p178
aS'http://www.hm.com/us/product/59231?article=59231-A'
p179
aS'http://www.hm.com/us/product/57804?article=57804-A'
p180
aS'http://www.hm.com/us/product/63048?article=63048-A'
p181
aS'http://www.hm.com/us/product/38064?article=38064-B'
p182
aS'http://www.hm.com/us/product/83923?article=83923-A'
p183
aS'http://www.hm.com/us/product/61117?article=61117-A'
p184
aS'http://www.hm.com/us/product/64086?article=64086-B'
p185
aS'http://www.hm.com/us/product/61634?article=61634-A'
p186
aS'http://www.hm.com/us/product/61419?article=61419-C'
p187
aS'http://www.hm.com/us/product/57862?article=57862-A'
p188
aS'http://www.hm.com/us/product/42822?article=42822-A'
p189
aS'http://www.hm.com/us/product/56722?article=56722-B'
p190
aS'http://www.hm.com/us/product/61190?article=61190-A'
p191
aS'http://www.hm.com/us/product/63784?article=63784-B'
p192
aS'http://www.hm.com/us/product/19220?article=19220-C'
p193
aS'http://www.hm.com/us/product/60769?article=60769-A'
p194
aS'http://www.hm.com/us/product/58142?article=58142-A'
p195
aS'http://www.hm.com/us/product/59539?article=59539-C'
p196
aS'http://www.hm.com/us/product/59773?article=59773-A'
p197
aS'http://www.hm.com/us/product/56949?article=56949-A'
p198
aS'http://www.hm.com/us/product/38513?article=38513-T'
p199
aS'http://www.hm.com/us/product/65071?article=65071-A'
p200
aS'http://www.hm.com/us/product/62288?article=62288-A'
p201
aS'http://www.hm.com/us/product/59239?article=59239-A'
p202
aS'http://www.hm.com/us/product/65742?article=65742-A'
p203
aS'http://www.hm.com/us/product/62263?article=62263-C'
p204
aS'http://www.hm.com/us/product/61475?article=61475-A'
p205
aS'http://www.hm.com/us/product/64663?article=64663-A'
p206
aS'http://www.hm.com/us/product/59521?article=59521-B'
p207
aS'http://www.hm.com/us/product/61628?article=61628-A'
p208
aS'http://www.hm.com/us/product/59234?article=59234-A'
p209
aS'http://www.hm.com/us/product/60128?article=60128-A'
p210
aS'http://www.hm.com/us/product/58142?article=58142-B'
p211
aS'http://www.hm.com/us/product/26661?article=26661-A'
p212
aS'http://www.hm.com/us/product/58645?article=58645-B'
p213
aS'http://www.hm.com/us/product/63209?article=63209-A'
p214
aS'http://www.hm.com/us/product/67477?article=67477-A'
p215
aS'http://www.hm.com/us/product/60314?article=60314-A'
p216
aS'http://www.hm.com/us/product/61079?article=61079-A'
p217
aS'http://www.hm.com/us/product/58245?article=58245-A'
p218
aS'http://www.hm.com/us/product/58072?article=58072-A'
p219
aS'http://www.hm.com/us/product/60047?article=60047-B'
p220
aS'http://www.hm.com/us/product/60065?article=60065-A'
p221
aS'http://www.hm.com/us/product/63564?article=63564-A'
p222
aS'http://www.hm.com/us/product/60168?article=60168-A'
p223
aS'http://www.hm.com/us/product/57778?article=57778-A'
p224
aS'http://www.hm.com/us/product/52012?article=52012-I'
p225
aS'http://www.hm.com/us/product/60951?article=60951-A'
p226
aS'http://www.hm.com/us/product/59562?article=59562-A'
p227
aS'http://www.hm.com/us/product/63784?article=63784-A'
p228
aS'http://www.hm.com/us/product/58010?article=58010-B'
p229
aS'http://www.hm.com/us/product/61426?article=61426-A'
p230
aS'http://www.hm.com/us/product/59587?article=59587-A'
p231
aS'http://www.hm.com/us/product/63542?article=63542-A'
p232
aS'http://www.hm.com/us/product/26972?article=26972-M'
p233
aS'http://www.hm.com/us/product/60171?article=60171-D'
p234
aS'http://www.hm.com/us/product/61765?article=61765-A'
p235
aS'http://www.hm.com/us/product/62741?article=62741-C'
p236
aS'http://www.hm.com/us/product/52610?article=52610-A'
p237
aS'http://www.hm.com/us/product/57757?article=57757-A'
p238
aS'http://www.hm.com/us/product/60065?article=60065-B'
p239
aS'http://www.hm.com/us/product/63432?article=63432-A'
p240
aS'http://www.hm.com/us/product/63432?article=63432-A'
p241
aS'http://www.hm.com/us/product/61870?article=61870-A'
p242
aS'http://www.hm.com/us/product/58068?article=58068-A'
p243
aS'http://www.hm.com/us/product/57514?article=57514-A'
p244
aS'http://www.hm.com/us/product/56245?article=56245-A'
p245
aS'http://www.hm.com/us/product/38235?article=38235-A'
p246
aS'http://www.hm.com/us/product/55407?article=55407-B'
p247
aS'http://www.hm.com/us/product/57780?article=57780-A'
p248
aS'http://www.hm.com/us/product/46729?article=46729-A'
p249
aS'http://www.hm.com/us/product/58402?article=58402-B'
p250
aS'http://www.hm.com/us/product/61027?article=61027-D'
p251
aS'http://www.hm.com/us/product/63542?article=63542-C'
p252
aS'http://www.hm.com/us/product/60752?article=60752-A'
p253
aS'http://www.hm.com/us/product/58645?article=58645-A'
p254
aS'http://www.hm.com/us/product/55968?article=55968-A'
p255
aS'http://www.hm.com/us/product/34980?article=34980-B'
p256
aS'http://www.hm.com/us/product/51609?article=51609-J'
p257
aS'http://www.hm.com/us/product/60735?article=60735-A'
p258
aS'http://www.hm.com/us/product/62717?article=62717-F'
p259
aS'http://www.hm.com/us/product/55940?article=55940-B'
p260
aS'http://www.hm.com/us/product/52210?article=52210-D'
p261
aS'http://www.hm.com/us/product/61890?article=61890-A'
p262
aS'http://www.hm.com/us/product/56858?article=56858-A'
p263
aS'http://www.hm.com/us/product/59836?article=59836-D'
p264
aS'http://www.hm.com/us/product/53063?article=53063-A'
p265
aS'http://www.hm.com/us/product/58102?article=58102-B'
p266
aS'http://www.hm.com/us/product/60977?article=60977-B'
p267
aS'http://www.hm.com/us/product/62283?article=62283-F'
p268
aS'http://www.hm.com/us/product/58399?article=58399-A'
p269
aS'http://www.hm.com/us/product/61066?article=61066-A'
p270
aS'http://www.hm.com/us/product/62741?article=62741-F'
p271
aS'http://www.hm.com/us/product/56238?article=56238-A'
p272
aS'http://www.hm.com/us/product/61350?article=61350-B'
p273
aS'http://www.hm.com/us/product/50833?article=50833-B'
p274
aS'http://www.hm.com/us/product/35737?article=35737-C'
p275
aS'http://www.hm.com/us/product/60977?article=60977-A'
p276
aS'http://www.hm.com/us/product/55410?article=55410-E'
p277
aS'http://www.hm.com/us/product/60791?article=60791-B'
p278
aS'http://www.hm.com/us/product/59643?article=59643-A'
p279
aS'http://www.hm.com/us/product/59908?article=59908-A'
p280
aS'http://www.hm.com/us/product/60245?article=60245-A'
p281
aS'http://www.hm.com/us/product/51609?article=51609-M'
p282
aS'http://www.hm.com/us/product/57658?article=57658-A'
p283
aS'http://www.hm.com/us/product/52725?article=52725-C'
p284
aS'http://www.hm.com/us/product/58160?article=58160-B'
p285
aS'http://www.hm.com/us/product/47298?article=47298-B'
p286
aS'http://www.hm.com/us/product/54171?article=54171-C'
p287
aS'http://www.hm.com/us/product/39527?article=39527-M'
p288
aS'http://www.hm.com/us/product/61031?article=61031-A'
p289
aS'http://www.hm.com/us/product/52622?article=52622-A'
p290
aS'http://www.hm.com/us/product/45641?article=45641-H'
p291
aS'http://www.hm.com/us/product/67189?article=67189-B'
p292
aS'http://www.hm.com/us/product/59183?article=59183-A'
p293
aS'http://www.hm.com/us/product/61859?article=61859-B'
p294
aS'http://www.hm.com/us/product/58046?article=58046-F'
p295
aS'http://www.hm.com/us/product/56245?article=56245-B'
p296
aS'http://www.hm.com/us/product/53930?article=53930-A'
p297
aS'http://www.hm.com/us/product/54636?article=54636-C'
p298
aS'http://www.hm.com/us/product/38319?article=38319-B'
p299
aS'http://www.hm.com/us/product/59643?article=59643-B'
p300
aS'http://www.hm.com/us/product/61372?article=61372-C'
p301
aS'http://www.hm.com/us/product/62516?article=62516-A'
p302
aS'http://www.hm.com/us/product/57070?article=57070-A'
p303
aS'http://www.hm.com/us/product/60791?article=60791-A'
p304
aS'http://www.hm.com/us/product/59431?article=59431-A'
p305
aS'http://www.hm.com/us/product/57326?article=57326-C'
p306
aS'http://www.hm.com/us/product/49127?article=49127-A'
p307
aS'http://www.hm.com/us/product/60827?article=60827-A'
p308
aS'http://www.hm.com/us/product/59460?article=59460-B'
p309
aS'http://www.hm.com/us/product/06042?article=06042-J'
p310
aS'http://www.hm.com/us/product/20009?article=20009-C'
p311
aS'http://www.hm.com/us/product/63706?article=63706-A'
p312
aS'http://www.hm.com/us/product/65401?article=65401-A'
p313
aS'http://www.hm.com/us/product/61315?article=61315-A'
p314
aS'http://www.hm.com/us/product/65568?article=65568-A'
p315
aS'http://www.hm.com/us/product/58380?article=58380-C'
p316
aS'http://www.hm.com/us/product/63014?article=63014-B'
p317
aS'http://www.hm.com/us/product/61179?article=61179-A'
p318
aS'http://www.hm.com/us/product/60829?article=60829-B'
p319
aS'http://www.hm.com/us/product/62996?article=62996-A'
p320
aS'http://www.hm.com/us/product/62717?article=62717-C'
p321
aS'http://www.hm.com/us/product/35593?article=35593-C'
p322
aS'http://www.hm.com/us/product/58123?article=58123-A'
p323
aS'http://www.hm.com/us/product/65205?article=65205-B'
p324
aS'http://www.hm.com/us/product/59409?article=59409-B'
p325
aS'http://www.hm.com/us/product/63150?article=63150-A'
p326
aS'http://www.hm.com/us/product/59592?article=59592-C'
p327
aS'http://www.hm.com/us/product/61043?article=61043-A'
p328
aS'http://www.hm.com/us/product/64867?article=64867-B'
p329
aS'http://www.hm.com/us/product/21262?article=21262-A'
p330
aS'http://www.hm.com/us/product/55165?article=55165-A'
p331
aS'http://www.hm.com/us/product/34980?article=34980-A'
p332
aS'http://www.hm.com/us/product/63315?article=63315-A'
p333
aS'http://www.hm.com/us/product/50687?article=50687-E'
p334
aS'http://www.hm.com/us/product/61100?article=61100-A'
p335
aS'http://www.hm.com/us/product/61798?article=61798-A'
p336
aS'http://www.hm.com/us/product/61047?article=61047-E'
p337
aS'http://www.hm.com/us/product/35185?article=35185-E'
p338
aS'http://www.hm.com/us/product/62975?article=62975-B'
p339
aS'http://www.hm.com/us/product/63932?article=63932-B'
p340
aS'http://www.hm.com/us/product/59434?article=59434-C'
p341
aS'http://www.hm.com/us/product/61183?article=61183-A'
p342
aS'http://www.hm.com/us/product/63423?article=63423-A'
p343
aS'http://www.hm.com/us/product/61700?article=61700-A'
p344
aS'http://www.hm.com/us/product/62717?article=62717-D'
p345
aS'http://www.hm.com/us/product/62012?article=62012-C'
p346
aS'http://www.hm.com/us/product/51674?article=51674-A'
p347
aS'http://www.hm.com/us/product/52954?article=52954-B'
p348
aS'http://www.hm.com/us/product/63102?article=63102-B'
p349
aS'http://www.hm.com/us/product/99090?article=99090-B'
p350
aS'http://www.hm.com/us/product/57610?article=57610-E'
p351
aS'http://www.hm.com/us/product/50024?article=50024-A'
p352
aS'http://www.hm.com/us/product/61372?article=61372-D'
p353
aS'http://www.hm.com/us/product/61362?article=61362-B'
p354
aS'http://www.hm.com/us/product/58402?article=58402-A'
p355
aS'http://www.hm.com/us/product/63141?article=63141-C'
p356
aS'http://www.hm.com/us/product/62113?article=62113-A'
p357
aS'http://www.hm.com/us/product/56143?article=56143-B'
p358
aS'http://www.hm.com/us/product/60066?article=60066-B'
p359
aS'http://www.hm.com/us/product/36176?article=36176-A'
p360
aS'http://www.hm.com/us/product/59865?article=59865-B'
p361
aS'http://www.hm.com/us/product/64828?article=64828-C'
p362
aS'http://www.hm.com/us/product/55669?article=55669-B'
p363
aS'http://www.hm.com/us/product/37531?article=37531-A'
p364
aS'http://www.hm.com/us/product/59865?article=59865-D'
p365
aS'http://www.hm.com/us/product/54636?article=54636-D'
p366
aS'http://www.hm.com/us/product/61333?article=61333-A'
p367
aS'http://www.hm.com/us/product/60731?article=60731-B'
p368
aS'http://www.hm.com/us/product/61175?article=61175-A'
p369
aS'http://www.hm.com/us/product/54491?article=54491-D'
p370
aS'http://www.hm.com/us/product/59432?article=59432-A'
p371
aS'http://www.hm.com/us/product/58367?article=58367-A'
p372
aS'http://www.hm.com/us/product/57893?article=57893-A'
p373
aS'http://www.hm.com/us/product/58714?article=58714-A'
p374
aS'http://www.hm.com/us/product/61088?article=61088-B'
p375
aS'http://www.hm.com/us/product/59673?article=59673-A'
p376
aS'http://www.hm.com/us/product/61304?article=61304-A'
p377
aS'http://www.hm.com/us/product/52394?article=52394-B'
p378
aS'http://www.hm.com/us/product/60947?article=60947-D'
p379
aS'http://www.hm.com/us/product/59865?article=59865-C'
p380
aS'http://www.hm.com/us/product/60268?article=60268-A'
p381
aS'http://www.hm.com/us/product/56300?article=56300-A'
p382
aS'http://www.hm.com/us/product/63231?article=63231-A'
p383
aS'http://www.hm.com/us/product/65298?article=65298-B'
p384
aS'http://www.hm.com/us/product/59494?article=59494-A'
p385
aS'http://www.hm.com/us/product/57974?article=57974-C'
p386
aS'http://www.hm.com/us/product/57326?article=57326-B'
p387
aS'http://www.hm.com/us/product/59984?article=59984-B'
p388
aS'http://www.hm.com/us/product/64419?article=64419-C'
p389
aS'http://www.hm.com/us/product/58094?article=58094-A'
p390
aS'http://www.hm.com/us/product/64242?article=64242-A'
p391
aS'http://www.hm.com/us/product/63437?article=63437-B'
p392
aS'http://www.hm.com/us/product/85454?article=85454-C'
p393
aS'http://www.hm.com/us/product/35185?article=35185-B'
p394
aS'http://www.hm.com/us/product/61997?article=61997-A'
p395
aS'http://www.hm.com/us/product/62288?article=62288-B'
p396
aS'http://www.hm.com/us/product/52084?article=52084-B'
p397
aS'http://www.hm.com/us/product/60321?article=60321-A'
p398
aS'http://www.hm.com/us/product/17613?article=17613-B'
p399
aS'http://www.hm.com/us/product/58201?article=58201-A'
p400
aS'http://www.hm.com/us/product/63533?article=63533-D'
p401
aS'http://www.hm.com/us/product/89988?article=89988-A'
p402
aS'http://www.hm.com/us/product/39508?article=39508-A'
p403
aS'http://www.hm.com/us/product/57309?article=57309-A'
p404
aS'http://www.hm.com/us/product/62525?article=62525-A'
p405
aS'http://www.hm.com/us/product/60907?article=60907-A'
p406
aS'http://www.hm.com/us/product/17610?article=17610-A'
p407
aS'http://www.hm.com/us/product/58495?article=58495-A'
p408
aS'http://www.hm.com/us/product/63715?article=63715-A'
p409
aS'http://www.hm.com/us/product/51223?article=51223-D'
p410
aS'http://www.hm.com/us/product/57564?article=57564-C'
p411
aS'http://www.hm.com/us/product/55497?article=55497-E'
p412
aS'http://www.hm.com/us/product/58400?article=58400-C'
p413
aS'http://www.hm.com/us/product/61598?article=61598-A'
p414
aS'http://www.hm.com/us/product/60253?article=60253-A'
p415
aS'http://www.hm.com/us/product/57851?article=57851-A'
p416
aS'http://www.hm.com/us/product/84923?article=84923-A'
p417
aS'http://www.hm.com/us/product/60835?article=60835-B'
p418
aS'http://www.hm.com/us/product/56501?article=56501-B'
p419
aS'http://www.hm.com/us/product/47923?article=47923-B'
p420
aS'http://www.hm.com/us/product/53306?article=53306-A'
p421
aS'http://www.hm.com/us/product/61358?article=61358-A'
p422
aS'http://www.hm.com/us/product/61664?article=61664-B'
p423
aS'http://www.hm.com/us/product/55488?article=55488-B'
p424
aS'http://www.hm.com/us/product/62583?article=62583-A'
p425
aS'http://www.hm.com/us/product/59983?article=59983-A'
p426
aS'http://www.hm.com/us/product/39527?article=39527-K'
p427
aS'http://www.hm.com/us/product/61207?article=61207-A'
p428
aS'http://www.hm.com/us/product/56292?article=56292-B'
p429
aS'http://www.hm.com/us/product/55772?article=55772-A'
p430
aS'http://www.hm.com/us/product/61733?article=61733-A'
p431
aS'http://www.hm.com/us/product/51472?article=51472-B'
p432
aS'http://www.hm.com/us/product/60685?article=60685-A'
p433
aS'http://www.hm.com/us/product/50713?article=50713-H'
p434
aS'http://www.hm.com/us/product/56493?article=56493-B'
p435
aS'http://www.hm.com/us/product/63561?article=63561-A'
p436
aS'http://www.hm.com/us/product/63417?article=63417-A'
p437
aS'http://www.hm.com/us/product/56526?article=56526-B'
p438
aS'http://www.hm.com/us/product/58068?article=58068-C'
p439
aS'http://www.hm.com/us/product/41707?article=41707-G'
p440
aS'http://www.hm.com/us/product/58634?article=58634-A'
p441
aS'http://www.hm.com/us/product/59303?article=59303-A'
p442
aS'http://www.hm.com/us/product/61495?article=61495-C'
p443
aS'http://www.hm.com/us/product/61025?article=61025-B'
p444
aS'http://www.hm.com/us/product/52859?article=52859-A'
p445
aS'http://www.hm.com/us/product/62765?article=62765-A'
p446
aS'http://www.hm.com/us/product/59058?article=59058-A'
p447
aS'http://www.hm.com/us/product/59312?article=59312-C'
p448
aS'http://www.hm.com/us/product/52360?article=52360-H'
p449
aS'http://www.hm.com/us/product/64345?article=64345-A'
p450
aS'http://www.hm.com/us/product/60680?article=60680-B'
p451
aS'http://www.hm.com/us/product/20688?article=20688-A'
p452
aS'http://www.hm.com/us/product/57522?article=57522-D'
p453
aS'http://www.hm.com/us/product/64388?article=64388-C'
p454
aS'http://www.hm.com/us/product/52496?article=52496-B'
p455
aS'http://www.hm.com/us/product/60951?article=60951-B'
p456
aS'http://www.hm.com/us/product/58859?article=58859-A'
p457
aS'http://www.hm.com/us/product/53148?article=53148-A'
p458
aS'http://www.hm.com/us/product/10614?article=10614-B'
p459
aS'http://www.hm.com/us/product/36945?article=36945-A'
p460
aS'http://www.hm.com/us/product/63061?article=63061-A'
p461
aS'http://www.hm.com/us/product/61034?article=61034-C'
p462
aS'http://www.hm.com/us/product/60947?article=60947-B'
p463
aS'http://www.hm.com/us/product/58827?article=58827-A'
p464
aS'http://www.hm.com/us/product/54388?article=54388-A'
p465
aS'http://www.hm.com/us/product/58987?article=58987-A'
p466
aS'http://www.hm.com/us/product/59312?article=59312-B'
p467
aS'http://www.hm.com/us/product/60127?article=60127-A'
p468
aS'http://www.hm.com/us/product/58044?article=58044-B'
p469
aS'http://www.hm.com/us/product/20880?article=20880-A'
p470
aS'http://www.hm.com/us/product/63423?article=63423-B'
p471
aS'http://www.hm.com/us/product/52734?article=52734-A'
p472
aS'http://www.hm.com/us/product/61870?article=61870-C'
p473
aS'http://www.hm.com/us/product/57974?article=57974-B'
p474
aS'http://www.hm.com/us/product/54566?article=54566-B'
p475
aS'http://www.hm.com/us/product/59984?article=59984-C'
p476
aS'http://www.hm.com/us/product/63136?article=63136-A'
p477
aS'http://www.hm.com/us/product/52622?article=52622-B'
p478
aS'http://www.hm.com/us/product/61286?article=61286-A'
p479
aS'http://www.hm.com/us/product/55475?article=55475-B'
p480
aS'http://www.hm.com/us/product/65297?article=65297-A'
p481
aS'http://www.hm.com/us/product/61047?article=61047-F'
p482
aS'http://www.hm.com/us/product/52819?article=52819-A'
p483
aS'http://www.hm.com/us/product/38997?article=38997-C'
p484
aS'http://www.hm.com/us/product/61452?article=61452-A'
p485
aS'http://www.hm.com/us/product/57757?article=57757-B'
p486
aS'http://www.hm.com/us/product/61547?article=61547-A'
p487
aS'http://www.hm.com/us/product/62952?article=62952-B'
p488
aS'http://www.hm.com/us/product/63091?article=63091-A'
p489
aS'http://www.hm.com/us/product/48135?article=48135-A'
p490
aS'http://www.hm.com/us/product/59771?article=59771-B'
p491
aS'http://www.hm.com/us/product/62518?article=62518-A'
p492
aS'http://www.hm.com/us/product/61452?article=61452-B'
p493
aS'http://www.hm.com/us/product/56543?article=56543-E'
p494
aS'http://www.hm.com/us/product/60329?article=60329-A'
p495
aS'http://www.hm.com/us/product/61610?article=61610-A'
p496
aS'http://www.hm.com/us/product/85194?article=85194-A'
p497
aS'http://www.hm.com/us/product/57480?article=57480-A'
p498
aS'http://www.hm.com/us/product/59964?article=59964-A'
p499
aS'http://www.hm.com/us/product/61936?article=61936-A'
p500
aS'http://www.hm.com/us/product/58557?article=58557-B'
p501
aS'http://www.hm.com/us/product/63932?article=63932-A'
p502
aS'http://www.hm.com/us/product/58044?article=58044-A'
p503
aS'http://www.hm.com/us/product/63207?article=63207-A'
p504
aS'http://www.hm.com/us/product/88863?article=88863-B'
p505
aS'http://www.hm.com/us/product/58402?article=58402-C'
p506
aS'http://www.hm.com/us/product/53163?article=53163-A'
p507
aS'http://www.hm.com/us/product/52498?article=52498-B'
p508
aS'http://www.hm.com/us/product/60066?article=60066-C'
p509
aS'http://www.hm.com/us/product/60059?article=60059-A'
p510
aS'http://www.hm.com/us/product/10326?article=10326-A'
p511
aS'http://www.hm.com/us/product/85263?article=85263-B'
p512
aS'http://www.hm.com/us/product/62952?article=62952-A'
p513
aS'http://www.hm.com/us/product/61866?article=61866-A'
p514
aS'http://www.hm.com/us/product/58637?article=58637-A'
p515
aS'http://www.hm.com/us/product/61033?article=61033-A'
p516
aS'http://www.hm.com/us/product/52972?article=52972-C'
p517
aS'http://www.hm.com/us/product/57769?article=57769-B'
p518
aS'http://www.hm.com/us/product/58877?article=58877-A'
p519
aS'http://www.hm.com/us/product/59058?article=59058-B'
p520
aS'http://www.hm.com/us/product/35291?article=35291-A'
p521
aS'http://www.hm.com/us/product/56280?article=56280-B'
p522
aS'http://www.hm.com/us/product/65455?article=65455-C'
p523
aS'http://www.hm.com/us/product/86875?article=86875-E'
p524
aS'http://www.hm.com/us/product/62052?article=62052-D'
p525
aS'http://www.hm.com/us/product/54531?article=54531-B'
p526
aS'http://www.hm.com/us/product/10614?article=10614-T'
p527
aS'http://www.hm.com/us/product/59360?article=59360-A'
p528
aS'http://www.hm.com/us/product/67472?article=67472-A'
p529
aS'http://www.hm.com/us/product/61355?article=61355-A'
p530
aS'http://www.hm.com/us/product/59971?article=59971-D'
p531
aS'http://www.hm.com/us/product/82397?article=82397-A'
p532
aS'http://www.hm.com/us/product/54448?article=54448-A'
p533
aS'http://www.hm.com/us/product/65372?article=65372-A'
p534
aS'http://www.hm.com/us/product/35644?article=35644-A'
p535
aS'http://www.hm.com/us/product/57610?article=57610-D'
p536
aS'http://www.hm.com/us/product/18327?article=18327-E'
p537
aS'http://www.hm.com/us/product/67000?article=67000-A'
p538
aS'http://www.hm.com/us/product/59420?article=59420-A'
p539
aS'http://www.hm.com/us/product/83551?article=83551-A'
p540
aS'http://www.hm.com/us/product/63396?article=63396-A'
p541
aS'http://www.hm.com/us/product/57820?article=57820-B'
p542
aS'http://www.hm.com/us/product/61856?article=61856-B'
p543
aS'http://www.hm.com/us/product/65150?article=65150-F'
p544
aS'http://www.hm.com/us/product/62115?article=62115-A'
p545
aS'http://www.hm.com/us/product/51186?article=51186-C'
p546
aS'http://www.hm.com/us/product/47301?article=47301-A'
p547
aS'http://www.hm.com/us/product/52485?article=52485-B'
p548
aS'http://www.hm.com/us/product/65371?article=65371-B'
p549
aS'http://www.hm.com/us/product/57564?article=57564-A'
p550
aS'http://www.hm.com/us/product/43499?article=43499-B'
p551
aS'http://www.hm.com/us/product/61582?article=61582-A'
p552
aS'http://www.hm.com/us/product/64828?article=64828-D'
p553
aS'http://www.hm.com/us/product/53682?article=53682-B'
p554
aS'http://www.hm.com/us/product/59902?article=59902-A'
p555
aS'http://www.hm.com/us/product/40271?article=40271-I'
p556
aS'http://www.hm.com/us/product/65705?article=65705-A'
p557
aS'http://www.hm.com/us/product/39356?article=39356-A'
p558
aS'http://www.hm.com/us/product/54885?article=54885-A'
p559
aS'http://www.hm.com/us/product/53316?article=53316-A'
p560
aS'http://www.hm.com/us/product/57920?article=57920-D'
p561
aS'http://www.hm.com/us/product/61279?article=61279-B'
p562
aS'http://www.hm.com/us/product/61047?article=61047-D'
p563
aS'http://www.hm.com/us/product/51517?article=51517-E'
p564
aS'http://www.hm.com/us/product/56491?article=56491-H'
p565
aS'http://www.hm.com/us/product/42458?article=42458-E'
p566
aS'http://www.hm.com/us/product/61244?article=61244-F'
p567
aS'http://www.hm.com/us/product/58012?article=58012-A'
p568
aS'http://www.hm.com/us/product/58994?article=58994-A'
p569
aS'http://www.hm.com/us/product/30915?article=30915-A'
p570
aS'http://www.hm.com/us/product/59321?article=59321-A'
p571
aS'http://www.hm.com/us/product/52360?article=52360-G'
p572
aS'http://www.hm.com/us/product/58498?article=58498-A'
p573
aS'http://www.hm.com/us/product/50589?article=50589-B'
p574
aS'http://www.hm.com/us/product/57326?article=57326-A'
p575
aS'http://www.hm.com/us/product/30570?article=30570-A'
p576
aS'http://www.hm.com/us/product/30028?article=30028-S'
p577
aS'http://www.hm.com/us/product/62721?article=62721-A'
p578
aS'http://www.hm.com/us/product/64828?article=64828-E'
p579
aS'http://www.hm.com/us/product/51173?article=51173-B'
p580
aS'http://www.hm.com/us/product/63887?article=63887-A'
p581
aS'http://www.hm.com/us/product/59409?article=59409-A'
p582
aS'http://www.hm.com/us/product/49368?article=49368-A'
p583
aS'http://www.hm.com/us/product/57193?article=57193-A'
p584
aS'http://www.hm.com/us/product/60300?article=60300-A'
p585
aS'http://www.hm.com/us/product/63050?article=63050-C'
p586
aS'http://www.hm.com/us/product/64883?article=64883-A'
p587
aS'http://www.hm.com/us/product/41228?article=41228-A'
p588
aS'http://www.hm.com/us/product/56928?article=56928-A'
p589
aS'http://www.hm.com/us/product/65455?article=65455-B'
p590
aS'http://www.hm.com/us/product/52941?article=52941-A'
p591
aS'http://www.hm.com/us/product/46090?article=46090-A'
p592
aS'http://www.hm.com/us/product/45732?article=45732-C'
p593
aS'http://www.hm.com/us/product/84608?article=84608-B'
p594
aS'http://www.hm.com/us/product/60198?article=60198-A'
p595
aS'http://www.hm.com/us/product/54949?article=54949-A'
p596
aS'http://www.hm.com/us/product/48084?article=48084-A'
p597
aS'http://www.hm.com/us/product/57804?article=57804-C'
p598
aS'http://www.hm.com/us/product/63925?article=63925-A'
p599
aS'http://www.hm.com/us/product/61774?article=61774-B'
p600
aS'http://www.hm.com/us/product/54295?article=54295-E'
p601
aS'http://www.hm.com/us/product/62741?article=62741-D'
p602
aS'http://www.hm.com/us/product/60638?article=60638-A'
p603
aS'http://www.hm.com/us/product/61525?article=61525-D'
p604
aS'http://www.hm.com/us/product/55496?article=55496-B'
p605
aS'http://www.hm.com/us/product/59188?article=59188-A'
p606
aS'http://www.hm.com/us/product/52858?article=52858-B'
p607
aS'http://www.hm.com/us/product/60536?article=60536-A'
p608
aS'http://www.hm.com/us/product/55004?article=55004-B'
p609
aS'http://www.hm.com/us/product/54159?article=54159-C'
p610
aS'http://www.hm.com/us/product/98637?article=98637-A'
p611
aS'http://www.hm.com/us/product/60317?article=60317-A'
p612
aS'http://www.hm.com/us/product/56329?article=56329-B'
p613
aS'http://www.hm.com/us/product/32434?article=32434-A'
p614
aS'http://www.hm.com/us/product/63599?article=63599-A'
p615
aS'http://www.hm.com/us/product/21865?article=21865-X'
p616
aS'http://www.hm.com/us/product/57912?article=57912-A'
p617
aS'http://www.hm.com/us/product/58228?article=58228-A'
p618
aS'http://www.hm.com/us/product/54597?article=54597-B'
p619
aS'http://www.hm.com/us/product/52110?article=52110-D'
p620
aS'http://www.hm.com/us/product/62738?article=62738-A'
p621
aS'http://www.hm.com/us/product/56104?article=56104-B'
p622
aS'http://www.hm.com/us/product/60061?article=60061-A'
p623
aS'http://www.hm.com/us/product/55391?article=55391-B'
p624
aS'http://www.hm.com/us/product/49958?article=49958-B'
p625
aS'http://www.hm.com/us/product/64882?article=64882-A'
p626
aS'http://www.hm.com/us/product/53388?article=53388-D'
p627
aS'http://www.hm.com/us/product/50683?article=50683-B'
p628
aS'http://www.hm.com/us/product/58106?article=58106-B'
p629
aS'http://www.hm.com/us/product/52017?article=52017-A'
p630
aS'http://www.hm.com/us/product/33948?article=33948-B'
p631
aS'http://www.hm.com/us/product/61173?article=61173-A'
p632
aS'http://www.hm.com/us/product/59303?article=59303-B'
p633
aS'http://www.hm.com/us/product/62525?article=62525-B'
p634
aS'http://www.hm.com/us/product/84968?article=84968-F'
p635
aS'http://www.hm.com/us/product/59493?article=59493-A'
p636
aS'http://www.hm.com/us/product/65760?article=65760-A'
p637
aS'http://www.hm.com/us/product/51609?article=51609-G'
p638
aS'http://www.hm.com/us/product/62320?article=62320-F'
p639
aS'http://www.hm.com/us/product/55486?article=55486-A'
p640
aS'http://www.hm.com/us/product/90836?article=90836-A'
p641
aS'http://www.hm.com/us/product/81834?article=81834-B'
p642
aS'http://www.hm.com/us/product/54089?article=54089-B'
p643
aS'http://www.hm.com/us/product/63414?article=63414-A'
p644
aS'http://www.hm.com/us/product/59332?article=59332-A'
p645
aS'http://www.hm.com/us/product/61869?article=61869-B'
p646
aS'http://www.hm.com/us/product/33292?article=33292-A'
p647
aS'http://www.hm.com/us/product/55497?article=55497-C'
p648
aS'http://www.hm.com/us/product/37601?article=37601-A'
p649
aS'http://www.hm.com/us/product/55327?article=55327-B'
p650
aS'http://www.hm.com/us/product/64288?article=64288-A'
p651
aS'http://www.hm.com/us/product/50522?article=50522-G'
p652
aS'http://www.hm.com/us/product/59634?article=59634-A'
p653
aS'http://www.hm.com/us/product/60159?article=60159-A'
p654
aS'http://www.hm.com/us/product/60837?article=60837-A'
p655
aS'http://www.hm.com/us/product/55467?article=55467-C'
p656
aS'http://www.hm.com/us/product/64776?article=64776-A'
p657
aS'http://www.hm.com/us/product/58956?article=58956-B'
p658
aS'http://www.hm.com/us/product/61721?article=61721-A'
p659
aS'http://www.hm.com/us/product/56148?article=56148-B'
p660
aS'http://www.hm.com/us/product/58380?article=58380-A'
p661
aS'http://www.hm.com/us/product/62129?article=62129-B'
p662
aS'http://www.hm.com/us/product/61372?article=61372-H'
p663
aS'http://www.hm.com/us/product/56273?article=56273-A'
p664
aS'http://www.hm.com/us/product/63002?article=63002-A'
p665
aS'http://www.hm.com/us/product/54449?article=54449-C'
p666
aS'http://www.hm.com/us/product/86555?article=86555-C'
p667
aS'http://www.hm.com/us/product/64711?article=64711-A'
p668
aS'http://www.hm.com/us/product/57911?article=57911-A'
p669
aS'http://www.hm.com/us/product/61495?article=61495-A'
p670
aS'http://www.hm.com/us/product/59211?article=59211-B'
p671
aS'http://www.hm.com/us/product/57685?article=57685-A'
p672
aS'http://www.hm.com/us/product/35559?article=35559-A'
p673
aS'http://www.hm.com/us/product/57765?article=57765-A'
p674
aS'http://www.hm.com/us/product/58291?article=58291-B'
p675
aS'http://www.hm.com/us/product/62102?article=62102-A'
p676
aS'http://www.hm.com/us/product/36894?article=36894-D'
p677
aS'http://www.hm.com/us/product/44705?article=44705-B'
p678
aS'http://www.hm.com/us/product/58342?article=58342-A'
p679
aS'http://www.hm.com/us/product/61855?article=61855-A'
p680
aS'http://www.hm.com/us/product/59211?article=59211-C'
p681
aS'http://www.hm.com/us/product/88608?article=88608-B'
p682
aS'http://www.hm.com/us/product/59021?article=59021-B'
p683
aS'http://www.hm.com/us/product/57959?article=57959-A'
p684
aS'http://www.hm.com/us/product/60906?article=60906-B'
p685
aS'http://www.hm.com/us/product/32387?article=32387-B'
p686
aS'http://www.hm.com/us/product/58022?article=58022-A'
p687
aS'http://www.hm.com/us/product/40071?article=40071-A'
p688
aS'http://www.hm.com/us/product/59512?article=59512-A'
p689
aS'http://www.hm.com/us/product/53209?article=53209-B'
p690
aS'http://www.hm.com/us/product/53076?article=53076-A'
p691
aS'http://www.hm.com/us/product/56382?article=56382-B'
p692
aS'http://www.hm.com/us/product/45049?article=45049-A'
p693
aS'http://www.hm.com/us/product/61345?article=61345-B'
p694
aS'http://www.hm.com/us/product/34755?article=34755-A'
p695
aS'http://www.hm.com/us/product/61957?article=61957-A'
p696
aS'http://www.hm.com/us/product/58802?article=58802-A'
p697
aS'http://www.hm.com/us/product/60720?article=60720-A'
p698
aS'http://www.hm.com/us/product/56881?article=56881-B'
p699
aS'http://www.hm.com/us/product/61345?article=61345-A'
p700
aS'http://www.hm.com/us/product/57805?article=57805-A'
p701
aS'http://www.hm.com/us/product/56248?article=56248-B'
p702
aS'http://www.hm.com/us/product/59678?article=59678-A'
p703
aS'http://www.hm.com/us/product/61028?article=61028-A'
p704
aS'http://www.hm.com/us/product/61525?article=61525-B'
p705
aS'http://www.hm.com/us/product/34206?article=34206-A'
p706
aS'http://www.hm.com/us/product/57520?article=57520-A'
p707
aS'http://www.hm.com/us/product/58185?article=58185-A'
p708
aS'http://www.hm.com/us/product/52972?article=52972-E'
p709
aS'http://www.hm.com/us/product/52822?article=52822-A'
p710
aS'http://www.hm.com/us/product/59316?article=59316-B'
p711
aS'http://www.hm.com/us/product/42177?article=42177-A'
p712
aS'http://www.hm.com/us/product/50857?article=50857-K'
p713
aS'http://www.hm.com/us/product/46361?article=46361-C'
p714
aS'http://www.hm.com/us/product/60864?article=60864-B'
p715
aS'http://www.hm.com/us/product/57387?article=57387-C'
p716
aS'http://www.hm.com/us/product/56107?article=56107-B'
p717
aS'http://www.hm.com/us/product/64910?article=64910-A'
p718
aS'http://www.hm.com/us/product/63976?article=63976-A'
p719
aS'http://www.hm.com/us/product/59754?article=59754-A'
p720
aS'http://www.hm.com/us/product/60952?article=60952-A'
p721
aS'http://www.hm.com/us/product/61941?article=61941-A'
p722
aS'http://www.hm.com/us/product/57453?article=57453-A'
p723
aS'http://www.hm.com/us/product/65194?article=65194-A'
p724
aS'http://www.hm.com/us/product/89480?article=89480-D'
p725
aS'http://www.hm.com/us/product/59021?article=59021-A'
p726
aS'http://www.hm.com/us/product/54058?article=54058-B'
p727
aS'http://www.hm.com/us/product/60642?article=60642-C'
p728
aS'http://www.hm.com/us/product/58996?article=58996-B'
p729
aS'http://www.hm.com/us/product/58779?article=58779-A'
p730
aS'http://www.hm.com/us/product/61856?article=61856-A'
p731
aS'http://www.hm.com/us/product/61022?article=61022-A'
p732
aS'http://www.hm.com/us/product/58219?article=58219-A'
p733
aS'http://www.hm.com/us/product/56391?article=56391-A'
p734
aS'http://www.hm.com/us/product/88680?article=88680-M'
p735
aS'http://www.hm.com/us/product/54650?article=54650-D'
p736
aS'http://www.hm.com/us/product/30398?article=30398-A'
p737
aS'http://www.hm.com/us/product/56336?article=56336-C'
p738
aS'http://www.hm.com/us/product/61070?article=61070-A'
p739
aS'http://www.hm.com/us/product/09650?article=09650-G'
p740
aS'http://www.hm.com/us/product/61774?article=61774-A'
p741
aS'http://www.hm.com/us/product/58058?article=58058-B'
p742
aS'http://www.hm.com/us/product/33928?article=33928-D'
p743
aS'http://www.hm.com/us/product/53308?article=53308-A'
p744
aS'http://www.hm.com/us/product/60264?article=60264-B'
p745
aS'http://www.hm.com/us/product/61899?article=61899-A'
p746
aS'http://www.hm.com/us/product/36789?article=36789-A'
p747
aS'http://www.hm.com/us/product/60331?article=60331-A'
p748
aS'http://www.hm.com/us/product/62105?article=62105-A'
p749
aS'http://www.hm.com/us/product/56889?article=56889-D'
p750
aS'http://www.hm.com/us/product/58170?article=58170-A'
p751
aS'http://www.hm.com/us/product/47998?article=47998-B'
p752
aS'http://www.hm.com/us/product/19220?article=19220-B'
p753
aS'http://www.hm.com/us/product/55500?article=55500-A'
p754
aS'http://www.hm.com/us/product/62386?article=62386-B'
p755
aS'http://www.hm.com/us/product/51607?article=51607-C'
p756
aS'http://www.hm.com/us/product/63171?article=63171-A'
p757
aS'http://www.hm.com/us/product/32673?article=32673-A'
p758
aS'http://www.hm.com/us/product/62589?article=62589-A'
p759
aS'http://www.hm.com/us/product/44388?article=44388-B'
p760
aS'http://www.hm.com/us/product/60537?article=60537-A'
p761
aS'http://www.hm.com/us/product/60321?article=60321-B'
p762
aS'http://www.hm.com/us/product/57512?article=57512-A'
p763
aS'http://www.hm.com/us/product/55618?article=55618-B'
p764
aS'http://www.hm.com/us/product/61068?article=61068-B'
p765
aS'http://www.hm.com/us/product/57563?article=57563-A'
p766
aS'http://www.hm.com/us/product/53654?article=53654-A'
p767
aS'http://www.hm.com/us/product/62320?article=62320-I'
p768
aS'http://www.hm.com/us/product/56830?article=56830-I'
p769
aS'http://www.hm.com/us/product/20809?article=20809-B'
p770
aS'http://www.hm.com/us/product/59442?article=59442-A'
p771
aS'http://www.hm.com/us/product/55380?article=55380-B'
p772
aS'http://www.hm.com/us/product/61048?article=61048-A'
p773
aS'http://www.hm.com/us/product/57771?article=57771-A'
p774
aS'http://www.hm.com/us/product/47433?article=47433-A'
p775
aS'http://www.hm.com/us/product/59117?article=59117-B'
p776
aS'http://www.hm.com/us/product/54285?article=54285-B'
p777
aS'http://www.hm.com/us/product/57651?article=57651-A'
p778
aS'http://www.hm.com/us/product/82227?article=82227-C'
p779
aS'http://www.hm.com/us/product/61476?article=61476-A'
p780
aS'http://www.hm.com/us/product/62489?article=62489-B'
p781
aS'http://www.hm.com/us/product/57154?article=57154-A'
p782
aS'http://www.hm.com/us/product/50881?article=50881-A'
p783
aS'http://www.hm.com/us/product/58809?article=58809-A'
p784
aS'http://www.hm.com/us/product/48319?article=48319-A'
p785
aS'http://www.hm.com/us/product/56814?article=56814-B'
p786
aS'http://www.hm.com/us/product/47204?article=47204-A'
p787
aS'http://www.hm.com/us/product/30892?article=30892-A'
p788
aS'http://www.hm.com/us/product/63471?article=63471-B'
p789
aS'http://www.hm.com/us/product/62754?article=62754-B'
p790
aS'http://www.hm.com/us/product/58814?article=58814-A'
p791
aS'http://www.hm.com/us/product/59310?article=59310-A'
p792
aS'http://www.hm.com/us/product/89831?article=89831-A'
p793
aS'http://www.hm.com/us/product/53324?article=53324-G'
p794
aS'http://www.hm.com/us/product/58336?article=58336-B'
p795
aS'http://www.hm.com/us/product/49320?article=49320-A'
p796
aS'http://www.hm.com/us/product/57743?article=57743-A'
p797
aS'http://www.hm.com/us/product/66020?article=66020-A'
p798
aS'http://www.hm.com/us/product/82377?article=82377-A'
p799
aS'http://www.hm.com/us/product/62224?article=62224-B'
p800
aS'http://www.hm.com/us/product/47134?article=47134-A'
p801
aS'http://www.hm.com/us/product/61362?article=61362-A'
p802
aS'http://www.hm.com/us/product/44550?article=44550-B'
p803
aS'http://www.hm.com/us/product/61127?article=61127-B'
p804
aS'http://www.hm.com/us/product/58106?article=58106-A'
p805
aS'http://www.hm.com/us/product/57853?article=57853-B'
p806
aS'http://www.hm.com/us/product/62248?article=62248-B'
p807
aS'http://www.hm.com/us/product/50217?article=50217-C'
p808
aS'http://www.hm.com/us/product/41328?article=41328-B'
p809
aS'http://www.hm.com/us/product/57866?article=57866-A'
p810
aS'http://www.hm.com/us/product/46228?article=46228-A'
p811
aS'http://www.hm.com/us/product/83609?article=83609-A'
p812
aS'http://www.hm.com/us/product/61774?article=61774-C'
p813
aS'http://www.hm.com/us/product/48747?article=48747-C'
p814
aS'http://www.hm.com/us/product/53091?article=53091-A'
p815
aS'http://www.hm.com/us/product/86555?article=86555-B'
p816
aS'http://www.hm.com/us/product/61589?article=61589-D'
p817
aS'http://www.hm.com/us/product/57457?article=57457-A'
p818
aS'http://www.hm.com/us/product/61589?article=61589-C'
p819
aS'http://www.hm.com/us/product/60269?article=60269-A'
p820
aS'http://www.hm.com/us/product/56082?article=56082-B'
p821
aS'http://www.hm.com/us/product/57557?article=57557-B'
p822
aS'http://www.hm.com/us/product/59008?article=59008-B'
p823
aS'http://www.hm.com/us/product/63638?article=63638-A'
p824
aS'http://www.hm.com/us/product/85646?article=85646-A'
p825
aS'http://www.hm.com/us/product/11399?article=11399-A'
p826
aS'http://www.hm.com/us/product/36894?article=36894-E'
p827
aS'http://www.hm.com/us/product/53939?article=53939-A'
p828
aS'http://www.hm.com/us/product/88923?article=88923-A'
p829
aS'http://www.hm.com/us/product/58923?article=58923-B'
p830
aS'http://www.hm.com/us/product/54771?article=54771-A'
p831
aS'http://www.hm.com/us/product/50522?article=50522-H'
p832
aS'http://www.hm.com/us/product/46814?article=46814-G'
p833
aS'http://www.hm.com/us/product/56618?article=56618-A'
p834
aS'http://www.hm.com/us/product/60537?article=60537-B'
p835
aS'http://www.hm.com/us/product/31375?article=31375-A'
p836
aS'http://www.hm.com/us/product/63212?article=63212-B'
p837
aS'http://www.hm.com/us/product/42778?article=42778-A'
p838
aS'http://www.hm.com/us/product/50185?article=50185-A'
p839
aS'http://www.hm.com/us/product/61525?article=61525-A'
p840
aS'http://www.hm.com/us/product/57198?article=57198-A'
p841
aS'http://www.hm.com/us/product/58292?article=58292-A'
p842
aS'http://www.hm.com/us/product/64362?article=64362-A'
p843
aS'http://www.hm.com/us/product/55747?article=55747-B'
p844
aS'http://www.hm.com/us/product/32578?article=32578-A'
p845
aS'http://www.hm.com/us/product/51186?article=51186-B'
p846
aS'http://www.hm.com/us/product/59354?article=59354-A'
p847
aS'http://www.hm.com/us/product/57200?article=57200-B'
p848
aS'http://www.hm.com/us/product/56299?article=56299-A'
p849
aS'http://www.hm.com/us/product/62851?article=62851-B'
p850
aS'http://www.hm.com/us/product/58392?article=58392-B'
p851
aS'http://www.hm.com/us/product/61572?article=61572-A'
p852
aS'http://www.hm.com/us/product/46204?article=46204-A'
p853
aS'http://www.hm.com/us/product/41406?article=41406-B'
p854
aS'http://www.hm.com/us/product/54243?article=54243-C'
p855
aS'http://www.hm.com/us/product/58157?article=58157-B'
p856
aS'http://www.hm.com/us/product/58826?article=58826-A'
p857
aS'http://www.hm.com/us/product/56761?article=56761-B'
p858
aS'http://www.hm.com/us/product/60936?article=60936-A'
p859
aS'http://www.hm.com/us/product/56814?article=56814-D'
p860
aS'http://www.hm.com/us/product/60654?article=60654-A'
p861
aS'http://www.hm.com/us/product/53556?article=53556-A'
p862
aS'http://www.hm.com/us/product/42775?article=42775-A'
p863
aS'http://www.hm.com/us/product/56148?article=56148-A'
p864
aS'http://www.hm.com/us/product/56708?article=56708-A'
p865
aS'http://www.hm.com/us/product/87752?article=87752-X'
p866
aS'http://www.hm.com/us/product/57794?article=57794-B'
p867
aS'http://www.hm.com/us/product/53111?article=53111-A'
p868
aS'http://www.hm.com/us/product/56606?article=56606-A'
p869
aS'http://www.hm.com/us/product/59348?article=59348-A'
p870
aS'http://www.hm.com/us/product/60642?article=60642-G'
p871
aS'http://www.hm.com/us/product/53502?article=53502-A'
p872
aS'http://www.hm.com/us/product/55884?article=55884-A'
p873
aS'http://www.hm.com/us/product/36499?article=36499-A'
p874
aS'http://www.hm.com/us/product/58163?article=58163-A'
p875
aS'http://www.hm.com/us/product/57959?article=57959-B'
p876
aS'http://www.hm.com/us/product/32625?article=32625-A'
p877
aS'http://www.hm.com/us/product/20484?article=20484-A'
p878
aS'http://www.hm.com/us/product/38478?article=38478-E'
p879
aS'http://www.hm.com/us/product/56950?article=56950-A'
p880
aS'http://www.hm.com/us/product/54285?article=54285-A'
p881
aS'http://www.hm.com/us/product/60355?article=60355-A'
p882
aS'http://www.hm.com/us/product/61068?article=61068-A'
p883
aS'http://www.hm.com/us/product/50693?article=50693-C'
p884
aS'http://www.hm.com/us/product/64817?article=64817-A'
p885
aS'http://www.hm.com/us/product/37993?article=37993-A'
p886
aS'http://www.hm.com/us/product/33215?article=33215-A'
p887
aS'http://www.hm.com/us/product/62967?article=62967-A'
p888
aS'http://www.hm.com/us/product/35003?article=35003-A'
p889
aS'http://www.hm.com/us/product/30499?article=30499-A'
p890
aS'http://www.hm.com/us/product/37057?article=37057-A'
p891
aS'http://www.hm.com/us/product/57160?article=57160-A'
p892
aS'http://www.hm.com/us/product/60171?article=60171-C'
p893
aS'http://www.hm.com/us/product/59999?article=59999-A'
p894
aS'http://www.hm.com/us/product/59025?article=59025-B'
p895
aS'http://www.hm.com/us/product/61707?article=61707-A'
p896
aS'http://www.hm.com/us/product/59666?article=59666-A'
p897
aS'http://www.hm.com/us/product/63786?article=63786-A'
p898
aS'http://www.hm.com/us/product/53111?article=53111-B'
p899
aS'http://www.hm.com/us/product/58047?article=58047-B'
p900
aS'http://www.hm.com/us/product/58047?article=58047-B'
p901
aS'http://www.hm.com/us/product/59374?article=59374-A'
p902
aS'http://www.hm.com/us/product/57557?article=57557-C'
p903
aS'http://www.hm.com/us/product/60651?article=60651-B'
p904
aS'http://www.hm.com/us/product/66494?article=66494-A'
p905
aS'http://www.hm.com/us/product/53232?article=53232-B'
p906
aS'http://www.hm.com/us/product/60707?article=60707-A'
p907
aS'http://www.hm.com/us/product/61187?article=61187-A'
p908
aS'http://www.hm.com/us/product/54844?article=54844-A'
p909
aS'http://www.hm.com/us/product/58956?article=58956-A'
p910
aS'http://www.hm.com/us/product/31336?article=31336-A'
p911
aS'http://www.hm.com/us/product/09652?article=09652-I'
p912
aS'http://www.hm.com/us/product/49802?article=49802-B'
p913
aS'http://www.hm.com/us/product/58102?article=58102-A'
p914
aS'http://www.hm.com/us/product/58120?article=58120-A'
p915
aS'http://www.hm.com/us/product/60903?article=60903-C'
p916
aS'http://www.hm.com/us/product/58066?article=58066-A'
p917
aS'http://www.hm.com/us/product/60206?article=60206-D'
p918
aS'http://www.hm.com/us/product/60558?article=60558-A'
p919
aS'http://www.hm.com/us/product/53175?article=53175-A'
p920
aS'http://www.hm.com/us/product/57856?article=57856-A'
p921
aS'http://www.hm.com/us/product/34133?article=34133-A'
p922
aS'http://www.hm.com/us/product/54420?article=54420-E'
p923
aS'http://www.hm.com/us/product/55805?article=55805-A'
p924
aS'http://www.hm.com/us/product/56745?article=56745-I'
p925
aS'http://www.hm.com/us/product/34765?article=34765-A'
p926
aS'http://www.hm.com/us/product/19460?article=19460-S'
p927
aS'http://www.hm.com/us/product/54067?article=54067-B'
p928
aS'http://www.hm.com/us/product/60567?article=60567-A'
p929
aS'http://www.hm.com/us/product/35336?article=35336-A'
p930
aS'http://www.hm.com/us/product/62454?article=62454-B'
p931
aS'http://www.hm.com/us/product/41233?article=41233-B'
p932
aS'http://www.hm.com/us/product/50225?article=50225-B'
p933
aS'http://www.hm.com/us/product/58326?article=58326-A'
p934
aS'http://www.hm.com/us/product/61447?article=61447-B'
p935
aS'http://www.hm.com/us/product/50522?article=50522-B'
p936
aS'http://www.hm.com/us/product/62527?article=62527-A'
p937
aS'http://www.hm.com/us/product/59419?article=59419-A'
p938
aS'http://www.hm.com/us/product/59091?article=59091-A'
p939
aS'http://www.hm.com/us/product/35252?article=35252-A'
p940
aS'http://www.hm.com/us/product/49620?article=49620-A'
p941
aS'http://www.hm.com/us/product/57720?article=57720-A'
p942
aS'http://www.hm.com/us/product/57315?article=57315-C'
p943
aS'http://www.hm.com/us/product/34288?article=34288-A'
p944
aS'http://www.hm.com/us/product/59188?article=59188-C'
p945
aS'http://www.hm.com/us/product/60202?article=60202-A'
p946
aS'http://www.hm.com/us/product/53929?article=53929-A'
p947
aS'http://www.hm.com/us/product/30712?article=30712-A'
p948
aS'http://www.hm.com/us/product/54420?article=54420-B'
p949
aS'http://www.hm.com/us/product/57942?article=57942-A'
p950
aS'http://www.hm.com/us/product/57653?article=57653-A'
p951
aS'http://www.hm.com/us/product/54192?article=54192-A'
p952
aS'http://www.hm.com/us/product/38980?article=38980-A'
p953
aS'http://www.hm.com/us/product/59008?article=59008-A'
p954
aS'http://www.hm.com/us/product/20758?article=20758-A'
p955
aS'http://www.hm.com/us/product/38895?article=38895-A'
p956
aS'http://www.hm.com/us/product/62349?article=62349-A'
p957
aS'http://www.hm.com/us/product/54558?article=54558-B'
p958
aS'http://www.hm.com/us/product/50968?article=50968-A'
p959
aS'http://www.hm.com/us/product/57852?article=57852-A'
p960
aS'http://www.hm.com/us/product/55121?article=55121-A'
p961
aS'http://www.hm.com/us/product/39668?article=39668-B'
p962
aS'http://www.hm.com/us/product/56300?article=56300-F'
p963
aS'http://www.hm.com/us/product/61372?article=61372-B'
p964
aS'http://www.hm.com/us/product/40660?article=40660-D'
p965
aS'http://www.hm.com/us/product/66963?article=66963-A'
p966
aS'http://www.hm.com/us/product/63050?article=63050-D'
p967
aS'http://www.hm.com/us/product/64660?article=64660-A'
p968
aS'http://www.hm.com/us/product/58598?article=58598-A'
p969
aS'http://www.hm.com/us/product/56952?article=56952-A'
p970
aS'http://www.hm.com/us/product/88577?article=88577-D'
p971
aS'http://www.hm.com/us/product/58313?article=58313-C'
p972
aS'http://www.hm.com/us/product/55099?article=55099-A'
p973
aS'http://www.hm.com/us/product/67542?article=67542-A'
p974
aS'http://www.hm.com/us/product/59577?article=59577-A'
p975
aS'http://www.hm.com/us/product/84703?article=84703-B'
p976
aS'http://www.hm.com/us/product/30709?article=30709-A'
p977
aS'http://www.hm.com/us/product/52521?article=52521-B'
p978
aS'http://www.hm.com/us/product/62386?article=62386-A'
p979
aS'http://www.hm.com/us/product/54814?article=54814-A'
p980
aS'http://www.hm.com/us/product/57704?article=57704-A'
p981
aS'http://www.hm.com/us/product/59591?article=59591-B'
p982
aS'http://www.hm.com/us/product/59099?article=59099-A'
p983
aS'http://www.hm.com/us/product/57528?article=57528-F'
p984
aS'http://www.hm.com/us/product/77553?article=77553-J'
p985
aS'http://www.hm.com/us/product/47776?article=47776-F'
p986
aS'http://www.hm.com/us/product/46000?article=46000-A'
p987
aS'http://www.hm.com/us/product/52360?article=52360-J'
p988
aS'http://www.hm.com/us/product/62412?article=62412-A'
p989
aS'http://www.hm.com/us/product/57208?article=57208-A'
p990
aS'http://www.hm.com/us/product/46216?article=46216-D'
p991
aS'http://www.hm.com/us/product/63799?article=63799-A'
p992
aS'http://www.hm.com/us/product/20020?article=20020-A'
p993
aS'http://www.hm.com/us/product/53025?article=53025-C'
p994
aS'http://www.hm.com/us/product/55016?article=55016-A'
p995
aS'http://www.hm.com/us/product/35547?article=35547-A'
p996
aS'http://www.hm.com/us/product/46834?article=46834-B'
p997
aS'http://www.hm.com/us/product/57765?article=57765-B'
p998
aS'http://www.hm.com/us/product/66466?article=66466-B'
p999
aS'http://www.hm.com/us/product/55489?article=55489-A'
p1000
aS'http://www.hm.com/us/product/56146?article=56146-A'
p1001
aS'http://www.hm.com/us/product/33682?article=33682-A'
p1002
aS'http://www.hm.com/us/product/62579?article=62579-A'
p1003
aS'http://www.hm.com/us/product/48135?article=48135-D'
p1004
aS'http://www.hm.com/us/product/50568?article=50568-B'
p1005
aS'http://www.hm.com/us/product/61718?article=61718-A'
p1006
aS'http://www.hm.com/us/product/50763?article=50763-B'
p1007
aS'http://www.hm.com/us/product/55297?article=55297-B'
p1008
aS'http://www.hm.com/us/product/37061?article=37061-A'
p1009
aS'http://www.hm.com/us/product/46732?article=46732-C'
p1010
aS'http://www.hm.com/us/product/54635?article=54635-A'
p1011
aS'http://www.hm.com/us/product/57946?article=57946-C'
p1012
aS'http://www.hm.com/us/product/65797?article=65797-B'
p1013
aS'http://www.hm.com/us/product/59031?article=59031-B'
p1014
aS'http://www.hm.com/us/product/61466?article=61466-B'
p1015
aS'http://www.hm.com/us/product/35212?article=35212-A'
p1016
aS'http://www.hm.com/us/product/59090?article=59090-B'
p1017
aS'http://www.hm.com/us/product/51570?article=51570-A'
p1018
aS'http://www.hm.com/us/product/62518?article=62518-D'
p1019
aS'http://www.hm.com/us/product/57634?article=57634-B'
p1020
aS'http://www.hm.com/us/product/51178?article=51178-B'
p1021
aS'http://www.hm.com/us/product/49855?article=49855-B'
p1022
aS'http://www.hm.com/us/product/57107?article=57107-B'
p1023
aS'http://www.hm.com/us/product/60648?article=60648-A'
p1024
aS'http://www.hm.com/us/product/65726?article=65726-A'
p1025
aS'http://www.hm.com/us/product/34762?article=34762-C'
p1026
aS'http://www.hm.com/us/product/46734?article=46734-F'
p1027
aS'http://www.hm.com/us/product/64375?article=64375-B'
p1028
aS'http://www.hm.com/us/product/55744?article=55744-B'
p1029
aS'http://www.hm.com/us/product/58029?article=58029-A'
p1030
aS'http://www.hm.com/us/product/58449?article=58449-C'
p1031
aS'http://www.hm.com/us/product/54609?article=54609-B'
p1032
aS'http://www.hm.com/us/product/40763?article=40763-E'
p1033
aS'http://www.hm.com/us/product/20301?article=20301-B'
p1034
aS'http://www.hm.com/us/product/23376?article=23376-A'
p1035
aS'http://www.hm.com/us/product/61566?article=61566-A'
p1036
aS'http://www.hm.com/us/product/59470?article=59470-A'
p1037
aS'http://www.hm.com/us/product/57528?article=57528-D'
p1038
aS'http://www.hm.com/us/product/58271?article=58271-B'
p1039
aS'http://www.hm.com/us/product/19057?article=19057-D'
p1040
aS'http://www.hm.com/us/product/56913?article=56913-B'
p1041
aS'http://www.hm.com/us/product/61017?article=61017-A'
p1042
aS'http://www.hm.com/us/product/60561?article=60561-B'
p1043
aS'http://www.hm.com/us/product/58196?article=58196-A'
p1044
aS'http://www.hm.com/us/product/44796?article=44796-A'
p1045
aS'http://www.hm.com/us/product/14271?article=14271-A'
p1046
aS'http://www.hm.com/us/product/46157?article=46157-A'
p1047
aS'http://www.hm.com/us/product/58215?article=58215-F'
p1048
aS'http://www.hm.com/us/product/59090?article=59090-D'
p1049
aS'http://www.hm.com/us/product/63071?article=63071-A'
p1050
aS'http://www.hm.com/us/product/31375?article=31375-B'
p1051
aS'http://www.hm.com/us/product/66925?article=66925-A'
p1052
aS'http://www.hm.com/us/product/59561?article=59561-A'
p1053
aS'http://www.hm.com/us/product/48807?article=48807-A'
p1054
aS'http://www.hm.com/us/product/51196?article=51196-D'
p1055
aS'http://www.hm.com/us/product/60296?article=60296-A'
p1056
aS'http://www.hm.com/us/product/59025?article=59025-A'
p1057
aS'http://www.hm.com/us/product/60992?article=60992-B'
p1058
aS'http://www.hm.com/us/product/56349?article=56349-A'
p1059
aS'http://www.hm.com/us/product/57737?article=57737-A'
p1060
aS'http://www.hm.com/us/product/46229?article=46229-A'
p1061
aS'http://www.hm.com/us/product/56745?article=56745-H'
p1062
aS'http://www.hm.com/us/product/88577?article=88577-C'
p1063
aS'http://www.hm.com/us/product/62320?article=62320-E'
p1064
aS'http://www.hm.com/us/product/57684?article=57684-A'
p1065
aS'http://www.hm.com/us/product/61550?article=61550-A'
p1066
aS'http://www.hm.com/us/product/36844?article=36844-A'
p1067
aS'http://www.hm.com/us/product/58474?article=58474-A'
p1068
aS'http://www.hm.com/us/product/57829?article=57829-A'
p1069
aS'http://www.hm.com/us/product/47995?article=47995-A'
p1070
aS'http://www.hm.com/us/product/35780?article=35780-A'
p1071
aS'http://www.hm.com/us/product/38513?article=38513-J'
p1072
aS'http://www.hm.com/us/product/32627?article=32627-A'
p1073
aS'http://www.hm.com/us/product/64757?article=64757-A'
p1074
aS'http://www.hm.com/us/product/59269?article=59269-B'
p1075
aS'http://www.hm.com/us/product/51565?article=51565-B'
p1076
aS'http://www.hm.com/us/product/56688?article=56688-A'
p1077
aS'http://www.hm.com/us/product/55744?article=55744-A'
p1078
aS'http://www.hm.com/us/product/76777?article=76777-B'
p1079
aS'http://www.hm.com/us/product/55973?article=55973-A'
p1080
aS'http://www.hm.com/us/product/64412?article=64412-A'
p1081
aS'http://www.hm.com/us/product/56346?article=56346-A'
p1082
aS'http://www.hm.com/us/product/56412?article=56412-A'
p1083
aS'http://www.hm.com/us/product/57655?article=57655-A'
p1084
aS'http://www.hm.com/us/product/57995?article=57995-A'
p1085
aS'http://www.hm.com/us/product/20930?article=20930-A'
p1086
aS'http://www.hm.com/us/product/88698?article=88698-A'
p1087
aS'http://www.hm.com/us/product/57792?article=57792-A'
p1088
aS'http://www.hm.com/us/product/60223?article=60223-A'
p1089
aS'http://www.hm.com/us/product/58285?article=58285-A'
p1090
aS'http://www.hm.com/us/product/55548?article=55548-C'
p1091
aS'http://www.hm.com/us/product/33630?article=33630-E'
p1092
aS'http://www.hm.com/us/product/59674?article=59674-A'
p1093
aS'http://www.hm.com/us/product/55230?article=55230-A'
p1094
aS'http://www.hm.com/us/product/54295?article=54295-B'
p1095
aS'http://www.hm.com/us/product/54078?article=54078-A'
p1096
aS'http://www.hm.com/us/product/53929?article=53929-D'
p1097
aS'http://www.hm.com/us/product/59278?article=59278-B'
p1098
aS'http://www.hm.com/us/product/62098?article=62098-A'
p1099
aS'http://www.hm.com/us/product/54243?article=54243-A'
p1100
aS'http://www.hm.com/us/product/58970?article=58970-A'
p1101
aS'http://www.hm.com/us/product/54420?article=54420-A'
p1102
aS'http://www.hm.com/us/product/64226?article=64226-A'
p1103
aS'http://www.hm.com/us/product/59587?article=59587-B'
p1104
aS'http://www.hm.com/us/product/58307?article=58307-A'
p1105
aS'http://www.hm.com/us/product/42087?article=42087-B'
p1106
aS'http://www.hm.com/us/product/50372?article=50372-A'
p1107
aS'http://www.hm.com/us/product/63798?article=63798-A'
p1108
aS'http://www.hm.com/us/product/55286?article=55286-A'
p1109
aS'http://www.hm.com/us/product/56030?article=56030-E'
p1110
aS'http://www.hm.com/us/product/53813?article=53813-A'
p1111
aS'http://www.hm.com/us/product/62145?article=62145-A'
p1112
aS'http://www.hm.com/us/product/37083?article=37083-A'
p1113
aS'http://www.hm.com/us/product/58473?article=58473-B'
p1114
aS'http://www.hm.com/us/product/61748?article=61748-A'
p1115
aS'http://www.hm.com/us/product/57479?article=57479-A'
p1116
aS'http://www.hm.com/us/product/61660?article=61660-A'
p1117
aS'http://www.hm.com/us/product/57228?article=57228-A'
p1118
aS'http://www.hm.com/us/product/60302?article=60302-B'
p1119
aS'http://www.hm.com/us/product/21153?article=21153-A'
p1120
aS'http://www.hm.com/us/product/88701?article=88701-A'
p1121
aS'http://www.hm.com/us/product/60935?article=60935-A'
p1122
aS'http://www.hm.com/us/product/48813?article=48813-C'
p1123
aS'http://www.hm.com/us/product/57204?article=57204-A'
p1124
aS'http://www.hm.com/us/product/74967?article=74967-A'
p1125
aS'http://www.hm.com/us/product/59419?article=59419-B'
p1126
aS'http://www.hm.com/us/product/59211?article=59211-A'
p1127
aS'http://www.hm.com/us/product/34481?article=34481-A'
p1128
aS'http://www.hm.com/us/product/50522?article=50522-C'
p1129
aS'http://www.hm.com/us/product/53414?article=53414-D'
p1130
aS'http://www.hm.com/us/product/33650?article=33650-A'
p1131
aS'http://www.hm.com/us/product/35317?article=35317-A'
p1132
aS'http://www.hm.com/us/product/58034?article=58034-C'
p1133
aS'http://www.hm.com/us/product/64049?article=64049-A'
p1134
aS'http://www.hm.com/us/product/56559?article=56559-B'
p1135
aS'http://www.hm.com/us/product/47617?article=47617-A'
p1136
aS'http://www.hm.com/us/product/55650?article=55650-E'
p1137
aS'http://www.hm.com/us/product/62982?article=62982-A'
p1138
aS'http://www.hm.com/us/product/57674?article=57674-A'
p1139
aS'http://www.hm.com/us/product/53119?article=53119-A'
p1140
aS'http://www.hm.com/us/product/32340?article=32340-A'
p1141
aS'http://www.hm.com/us/product/20599?article=20599-A'
p1142
aS'http://www.hm.com/us/product/39074?article=39074-A'
p1143
aS'http://www.hm.com/us/product/53647?article=53647-B'
p1144
aS'http://www.hm.com/us/product/34936?article=34936-A'
p1145
aS'http://www.hm.com/us/product/56745?article=56745-J'
p1146
aS'http://www.hm.com/us/product/58393?article=58393-A'
p1147
aS'http://www.hm.com/us/product/58100?article=58100-A'
p1148
aS'http://www.hm.com/us/product/49435?article=49435-B'
p1149
aS'http://www.hm.com/us/product/34261?article=34261-A'
p1150
aS'http://www.hm.com/us/product/59014?article=59014-B'
p1151
aS'http://www.hm.com/us/product/86191?article=86191-A'
p1152
aS'http://www.hm.com/us/product/45952?article=45952-B'
p1153
aS'http://www.hm.com/us/product/53618?article=53618-B'
p1154
aS'http://www.hm.com/us/product/36276?article=36276-B'
p1155
aS'http://www.hm.com/us/product/02551?article=02551-A'
p1156
aS'http://www.hm.com/us/product/34625?article=34625-D'
p1157
aS'http://www.hm.com/us/product/54420?article=54420-D'
p1158
aS'http://www.hm.com/us/product/36947?article=36947-A'
p1159
aS'http://www.hm.com/us/product/30123?article=30123-A'
p1160
aS'http://www.hm.com/us/product/63150?article=63150-B'
p1161
aS'http://www.hm.com/us/product/10614?article=10614-U'
p1162
aS'http://www.hm.com/us/product/40320?article=40320-G'
p1163
aS'http://www.hm.com/us/product/61673?article=61673-A'
p1164
aS'http://www.hm.com/us/product/58473?article=58473-A'
p1165
aS'http://www.hm.com/us/product/57279?article=57279-B'
p1166
aS'http://www.hm.com/us/product/53618?article=53618-A'
p1167
aS'http://www.hm.com/us/product/55626?article=55626-B'
p1168
aS'http://www.hm.com/us/product/38130?article=38130-C'
p1169
aS'http://www.hm.com/us/product/87781?article=87781-B'
p1170
aS'http://www.hm.com/us/product/58048?article=58048-B'
p1171
aS'http://www.hm.com/us/product/51467?article=51467-A'
p1172
aS'http://www.hm.com/us/product/56830?article=56830-G'
p1173
aS'http://www.hm.com/us/product/50489?article=50489-A'
p1174
aS'http://www.hm.com/us/product/59128?article=59128-B'
p1175
aS'http://www.hm.com/us/product/65849?article=65849-A'
p1176
aS'http://www.hm.com/us/product/34850?article=34850-A'
p1177
aS'http://www.hm.com/us/product/34545?article=34545-A'
p1178
aS'http://www.hm.com/us/product/55914?article=55914-A'
p1179
aS'http://www.hm.com/us/product/35672?article=35672-C'
p1180
aS'http://www.hm.com/us/product/30952?article=30952-B'
p1181
aS'http://www.hm.com/us/product/41726?article=41726-A'
p1182
aS'http://www.hm.com/us/product/47339?article=47339-A'
p1183
aS'http://www.hm.com/us/product/50428?article=50428-B'
p1184
aS'http://www.hm.com/us/product/49302?article=49302-B'
p1185
aS'http://www.hm.com/us/product/59128?article=59128-A'
p1186
aS'http://www.hm.com/us/product/56916?article=56916-B'
p1187
aS'http://www.hm.com/us/product/58777?article=58777-A'
p1188
aS'http://www.hm.com/us/product/59364?article=59364-A'
p1189
aS'http://www.hm.com/us/product/53094?article=53094-A'
p1190
aS'http://www.hm.com/us/product/30123?article=30123-B'
p1191
aS'http://www.hm.com/us/product/65877?article=65877-A'
p1192
aS'http://www.hm.com/us/product/55744?article=55744-C'
p1193
aS'http://www.hm.com/us/product/36613?article=36613-A'
p1194
aS'http://www.hm.com/us/product/57308?article=57308-A'
p1195
aS'http://www.hm.com/us/product/45797?article=45797-B'
p1196
aS'http://www.hm.com/us/product/36795?article=36795-A'
p1197
aS'http://www.hm.com/us/product/85024?article=85024-A'
p1198
aS'http://www.hm.com/us/product/91438?article=91438-A'
p1199
aS'http://www.hm.com/us/product/57179?article=57179-A'
p1200
aS'http://www.hm.com/us/product/19604?article=19604-A'
p1201
aS'http://www.hm.com/us/product/54721?article=54721-A'
p1202
aS'http://www.hm.com/us/product/41732?article=41732-A'
p1203
aS'http://www.hm.com/us/product/56580?article=56580-A'
p1204
aS'http://www.hm.com/us/product/57296?article=57296-A'
p1205
aS'http://www.hm.com/us/product/20896?article=20896-B'
p1206
aS'http://www.hm.com/us/product/55964?article=55964-A'
p1207
aS'http://www.hm.com/us/product/59269?article=59269-C'
p1208
aS'http://www.hm.com/us/product/52992?article=52992-A'
p1209
aS'http://www.hm.com/us/product/44628?article=44628-D'
p1210
aS'http://www.hm.com/us/product/42931?article=42931-B'
p1211
aS'http://www.hm.com/us/product/59492?article=59492-A'
p1212
aS'http://www.hm.com/us/product/88034?article=88034-A'
p1213
aS'http://www.hm.com/us/product/49971?article=49971-A'
p1214
aS'http://www.hm.com/us/product/59128?article=59128-C'
p1215
aS'http://www.hm.com/us/product/41390?article=41390-A'
p1216
aS'http://www.hm.com/us/product/47395?article=47395-A'
p1217
aS'http://www.hm.com/us/product/32869?article=32869-D'
p1218
aS'http://www.hm.com/us/product/33408?article=33408-B'
p1219
aS'http://www.hm.com/us/product/33630?article=33630-G'
p1220
aS'http://www.hm.com/us/product/35062?article=35062-B'
p1221
aS'http://www.hm.com/us/product/56078?article=56078-A'
p1222
aS'http://www.hm.com/us/product/52732?article=52732-A'
p1223
aS'http://www.hm.com/us/product/33086?article=33086-A'
p1224
aS'http://www.hm.com/us/product/64382?article=64382-B'
p1225
aS'http://www.hm.com/us/product/46224?article=46224-A'
p1226
aS'http://www.hm.com/us/product/55047?article=55047-B'
p1227
aS'http://www.hm.com/us/product/57656?article=57656-A'
p1228
aS'http://www.hm.com/us/product/56657?article=56657-A'
p1229
aS'http://www.hm.com/us/product/55628?article=55628-B'
p1230
aS'http://www.hm.com/us/product/53150?article=53150-B'
p1231
aS'http://www.hm.com/us/product/53399?article=53399-C'
p1232
aS'http://www.hm.com/us/product/55141?article=55141-C'
p1233
aS'http://www.hm.com/us/product/37042?article=37042-B'
p1234
aS'http://www.hm.com/us/product/92873?article=92873-A'
p1235
aS'http://www.hm.com/us/product/53596?article=53596-A'
p1236
aS'http://www.hm.com/us/product/83540?article=83540-A'
p1237
aS'http://www.hm.com/us/product/58990?article=58990-A'
p1238
aS'http://www.hm.com/us/product/84787?article=84787-A'
p1239
aS'http://www.hm.com/us/product/48746?article=48746-B'
p1240
aS'http://www.hm.com/us/product/45790?article=45790-A'
p1241
aS'http://www.hm.com/us/product/56851?article=56851-A'
p1242
a.