(lp0
S'http://www.hm.com/us/product/63613?article=63613-A'
p1
aS'http://www.hm.com/us/product/60534?article=60534-B'
p2
aS'http://www.hm.com/us/product/60284?article=60284-D'
p3
aS'http://www.hm.com/us/product/59679?article=59679-C'
p4
aS'http://www.hm.com/us/product/61516?article=61516-A'
p5
aS'http://www.hm.com/us/product/59097?article=59097-A'
p6
aS'http://www.hm.com/us/product/61892?article=61892-A'
p7
aS'http://www.hm.com/us/product/59667?article=59667-D'
p8
aS'http://www.hm.com/us/product/61443?article=61443-B'
p9
aS'http://www.hm.com/us/product/53462?article=53462-A'
p10
aS'http://www.hm.com/us/product/58070?article=58070-A'
p11
aS'http://www.hm.com/us/product/60748?article=60748-A'
p12
aS'http://www.hm.com/us/product/58533?article=58533-B'
p13
aS'http://www.hm.com/us/product/59143?article=59143-C'
p14
aS'http://www.hm.com/us/product/20397?article=20397-F'
p15
aS'http://www.hm.com/us/product/59584?article=59584-A'
p16
aS'http://www.hm.com/us/product/61886?article=61886-A'
p17
aS'http://www.hm.com/us/product/61973?article=61973-A'
p18
aS'http://www.hm.com/us/product/61443?article=61443-A'
p19
aS'http://www.hm.com/us/product/64223?article=64223-B'
p20
aS'http://www.hm.com/us/product/59097?article=59097-C'
p21
aS'http://www.hm.com/us/product/50097?article=50097-C'
p22
aS'http://www.hm.com/us/product/59778?article=59778-B'
p23
aS'http://www.hm.com/us/product/64401?article=64401-A'
p24
aS'http://www.hm.com/us/product/54043?article=54043-B'
p25
aS'http://www.hm.com/us/product/65580?article=65580-A'
p26
aS'http://www.hm.com/us/product/61565?article=61565-B'
p27
aS'http://www.hm.com/us/product/57511?article=57511-A'
p28
aS'http://www.hm.com/us/product/58732?article=58732-R'
p29
aS'http://www.hm.com/us/product/54776?article=54776-D'
p30
aS'http://www.hm.com/us/product/48153?article=48153-A'
p31
aS'http://www.hm.com/us/product/57703?article=57703-A'
p32
aS'http://www.hm.com/us/product/64655?article=64655-A'
p33
aS'http://www.hm.com/us/product/64600?article=64600-A'
p34
aS'http://www.hm.com/us/product/52987?article=52987-B'
p35
aS'http://www.hm.com/us/product/57881?article=57881-A'
p36
aS'http://www.hm.com/us/product/62482?article=62482-A'
p37
aS'http://www.hm.com/us/product/49662?article=49662-A'
p38
aS'http://www.hm.com/us/product/65711?article=65711-B'
p39
aS'http://www.hm.com/us/product/62046?article=62046-B'
p40
aS'http://www.hm.com/us/product/19177?article=19177-B'
p41
aS'http://www.hm.com/us/product/55000?article=55000-A'
p42
aS'http://www.hm.com/us/product/61984?article=61984-B'
p43
aS'http://www.hm.com/us/product/61984?article=61984-A'
p44
aS'http://www.hm.com/us/product/65184?article=65184-C'
p45
aS'http://www.hm.com/us/product/66072?article=66072-A'
p46
aS'http://www.hm.com/us/product/66072?article=66072-B'
p47
aS'http://www.hm.com/us/product/60104?article=60104-A'
p48
aS'http://www.hm.com/us/product/66072?article=66072-C'
p49
aS'http://www.hm.com/us/product/66072?article=66072-D'
p50
aS'http://www.hm.com/us/product/65184?article=65184-A'
p51
aS'http://www.hm.com/us/product/65184?article=65184-B'
p52
aS'http://www.hm.com/us/product/65626?article=65626-B'
p53
aS'http://www.hm.com/us/product/60284?article=60284-A'
p54
aS'http://www.hm.com/us/product/60534?article=60534-A'
p55
aS'http://www.hm.com/us/product/65626?article=65626-A'
p56
aS'http://www.hm.com/us/product/60262?article=60262-B'
p57
aS'http://www.hm.com/us/product/60111?article=60111-A'
p58
aS'http://www.hm.com/us/product/61564?article=61564-D'
p59
aS'http://www.hm.com/us/product/59403?article=59403-A'
p60
aS'http://www.hm.com/us/product/60534?article=60534-E'
p61
aS'http://www.hm.com/us/product/61310?article=61310-A'
p62
aS'http://www.hm.com/us/product/60088?article=60088-B'
p63
aS'http://www.hm.com/us/product/62170?article=62170-A'
p64
aS'http://www.hm.com/us/product/59154?article=59154-B'
p65
aS'http://www.hm.com/us/product/61627?article=61627-B'
p66
aS'http://www.hm.com/us/product/59529?article=59529-A'
p67
aS'http://www.hm.com/us/product/59868?article=59868-A'
p68
aS'http://www.hm.com/us/product/60284?article=60284-C'
p69
aS'http://www.hm.com/us/product/59804?article=59804-A'
p70
aS'http://www.hm.com/us/product/57878?article=57878-A'
p71
aS'http://www.hm.com/us/product/60104?article=60104-F'
p72
aS'http://www.hm.com/us/product/60310?article=60310-A'
p73
aS'http://www.hm.com/us/product/58949?article=58949-A'
p74
aS'http://www.hm.com/us/product/60976?article=60976-A'
p75
aS'http://www.hm.com/us/product/63306?article=63306-B'
p76
aS'http://www.hm.com/us/product/59729?article=59729-C'
p77
aS'http://www.hm.com/us/product/61002?article=61002-B'
p78
aS'http://www.hm.com/us/product/56499?article=56499-A'
p79
aS'http://www.hm.com/us/product/61311?article=61311-A'
p80
aS'http://www.hm.com/us/product/60039?article=60039-B'
p81
aS'http://www.hm.com/us/product/62766?article=62766-A'
p82
aS'http://www.hm.com/us/product/59475?article=59475-B'
p83
aS'http://www.hm.com/us/product/48078?article=48078-I'
p84
aS'http://www.hm.com/us/product/53069?article=53069-A'
p85
aS'http://www.hm.com/us/product/62170?article=62170-B'
p86
aS'http://www.hm.com/us/product/54552?article=54552-A'
p87
aS'http://www.hm.com/us/product/26912?article=26912-L'
p88
aS'http://www.hm.com/us/product/60534?article=60534-C'
p89
aS'http://www.hm.com/us/product/63702?article=63702-A'
p90
aS'http://www.hm.com/us/product/61892?article=61892-B'
p91
aS'http://www.hm.com/us/product/50661?article=50661-T'
p92
aS'http://www.hm.com/us/product/50087?article=50087-C'
p93
aS'http://www.hm.com/us/product/60867?article=60867-A'
p94
aS'http://www.hm.com/us/product/61303?article=61303-A'
p95
aS'http://www.hm.com/us/product/60529?article=60529-A'
p96
aS'http://www.hm.com/us/product/57878?article=57878-B'
p97
aS'http://www.hm.com/us/product/61546?article=61546-B'
p98
aS'http://www.hm.com/us/product/50831?article=50831-D'
p99
aS'http://www.hm.com/us/product/65626?article=65626-C'
p100
aS'http://www.hm.com/us/product/60632?article=60632-A'
p101
aS'http://www.hm.com/us/product/61627?article=61627-A'
p102
aS'http://www.hm.com/us/product/61423?article=61423-B'
p103
aS'http://www.hm.com/us/product/59402?article=59402-B'
p104
aS'http://www.hm.com/us/product/11532?article=11532-C'
p105
aS'http://www.hm.com/us/product/58733?article=58733-A'
p106
aS'http://www.hm.com/us/product/62082?article=62082-C'
p107
aS'http://www.hm.com/us/product/55877?article=55877-D'
p108
aS'http://www.hm.com/us/product/64835?article=64835-A'
p109
aS'http://www.hm.com/us/product/60798?article=60798-B'
p110
aS'http://www.hm.com/us/product/60311?article=60311-A'
p111
aS'http://www.hm.com/us/product/63306?article=63306-A'
p112
aS'http://www.hm.com/us/product/59401?article=59401-B'
p113
aS'http://www.hm.com/us/product/52736?article=52736-E'
p114
aS'http://www.hm.com/us/product/63940?article=63940-A'
p115
aS'http://www.hm.com/us/product/55677?article=55677-B'
p116
aS'http://www.hm.com/us/product/58593?article=58593-A'
p117
aS'http://www.hm.com/us/product/63149?article=63149-C'
p118
aS'http://www.hm.com/us/product/60076?article=60076-C'
p119
aS'http://www.hm.com/us/product/54552?article=54552-C'
p120
aS'http://www.hm.com/us/product/58593?article=58593-C'
p121
aS'http://www.hm.com/us/product/54043?article=54043-F'
p122
aS'http://www.hm.com/us/product/62165?article=62165-A'
p123
aS'http://www.hm.com/us/product/60262?article=60262-A'
p124
aS'http://www.hm.com/us/product/54006?article=54006-F'
p125
aS'http://www.hm.com/us/product/57393?article=57393-E'
p126
aS'http://www.hm.com/us/product/62628?article=62628-B'
p127
aS'http://www.hm.com/us/product/50037?article=50037-A'
p128
aS'http://www.hm.com/us/product/53607?article=53607-C'
p129
aS'http://www.hm.com/us/product/62170?article=62170-C'
p130
aS'http://www.hm.com/us/product/60751?article=60751-A'
p131
aS'http://www.hm.com/us/product/59311?article=59311-A'
p132
aS'http://www.hm.com/us/product/56646?article=56646-C'
p133
aS'http://www.hm.com/us/product/31670?article=31670-J'
p134
aS'http://www.hm.com/us/product/54125?article=54125-A'
p135
aS'http://www.hm.com/us/product/59100?article=59100-A'
p136
aS'http://www.hm.com/us/product/61975?article=61975-D'
p137
aS'http://www.hm.com/us/product/51468?article=51468-B'
p138
aS'http://www.hm.com/us/product/62244?article=62244-B'
p139
aS'http://www.hm.com/us/product/53975?article=53975-A'
p140
aS'http://www.hm.com/us/product/58467?article=58467-B'
p141
aS'http://www.hm.com/us/product/59510?article=59510-A'
p142
aS'http://www.hm.com/us/product/59164?article=59164-A'
p143
aS'http://www.hm.com/us/product/56681?article=56681-A'
p144
aS'http://www.hm.com/us/product/60081?article=60081-E'
p145
aS'http://www.hm.com/us/product/58570?article=58570-A'
p146
aS'http://www.hm.com/us/product/13689?article=13689-E'
p147
aS'http://www.hm.com/us/product/55050?article=55050-A'
p148
aS'http://www.hm.com/us/product/50087?article=50087-D'
p149
aS'http://www.hm.com/us/product/53052?article=53052-C'
p150
aS'http://www.hm.com/us/product/54515?article=54515-C'
p151
aS'http://www.hm.com/us/product/63547?article=63547-A'
p152
aS'http://www.hm.com/us/product/62355?article=62355-B'
p153
aS'http://www.hm.com/us/product/58533?article=58533-A'
p154
aS'http://www.hm.com/us/product/50293?article=50293-A'
p155
aS'http://www.hm.com/us/product/60854?article=60854-A'
p156
aS'http://www.hm.com/us/product/58871?article=58871-A'
p157
aS'http://www.hm.com/us/product/11551?article=11551-P'
p158
aS'http://www.hm.com/us/product/52893?article=52893-B'
p159
aS'http://www.hm.com/us/product/61773?article=61773-A'
p160
aS'http://www.hm.com/us/product/62713?article=62713-B'
p161
aS'http://www.hm.com/us/product/59511?article=59511-B'
p162
aS'http://www.hm.com/us/product/45945?article=45945-B'
p163
aS'http://www.hm.com/us/product/11551?article=11551-R'
p164
aS'http://www.hm.com/us/product/62144?article=62144-B'
p165
aS'http://www.hm.com/us/product/50436?article=50436-C'
p166
aS'http://www.hm.com/us/product/59807?article=59807-B'
p167
aS'http://www.hm.com/us/product/56154?article=56154-C'
p168
aS'http://www.hm.com/us/product/62229?article=62229-A'
p169
aS'http://www.hm.com/us/product/59947?article=59947-A'
p170
aS'http://www.hm.com/us/product/65664?article=65664-A'
p171
aS'http://www.hm.com/us/product/57796?article=57796-A'
p172
aS'http://www.hm.com/us/product/63855?article=63855-A'
p173
aS'http://www.hm.com/us/product/58257?article=58257-E'
p174
aS'http://www.hm.com/us/product/58190?article=58190-A'
p175
aS'http://www.hm.com/us/product/59401?article=59401-A'
p176
aS'http://www.hm.com/us/product/60132?article=60132-A'
p177
aS'http://www.hm.com/us/product/54930?article=54930-A'
p178
aS'http://www.hm.com/us/product/55077?article=55077-A'
p179
aS'http://www.hm.com/us/product/37359?article=37359-N'
p180
aS'http://www.hm.com/us/product/62735?article=62735-A'
p181
aS'http://www.hm.com/us/product/82194?article=82194-D'
p182
aS'http://www.hm.com/us/product/11532?article=11532-E'
p183
aS'http://www.hm.com/us/product/55146?article=55146-C'
p184
aS'http://www.hm.com/us/product/49318?article=49318-A'
p185
aS'http://www.hm.com/us/product/50518?article=50518-F'
p186
aS'http://www.hm.com/us/product/55958?article=55958-A'
p187
aS'http://www.hm.com/us/product/64069?article=64069-A'
p188
aS'http://www.hm.com/us/product/60666?article=60666-D'
p189
aS'http://www.hm.com/us/product/62148?article=62148-G'
p190
aS'http://www.hm.com/us/product/61121?article=61121-A'
p191
aS'http://www.hm.com/us/product/57881?article=57881-B'
p192
aS'http://www.hm.com/us/product/50922?article=50922-J'
p193
aS'http://www.hm.com/us/product/49545?article=49545-B'
p194
aS'http://www.hm.com/us/product/59475?article=59475-C'
p195
aS'http://www.hm.com/us/product/63183?article=63183-B'
p196
aS'http://www.hm.com/us/product/45857?article=45857-C'
p197
aS'http://www.hm.com/us/product/57698?article=57698-B'
p198
aS'http://www.hm.com/us/product/65598?article=65598-A'
p199
aS'http://www.hm.com/us/product/62555?article=62555-C'
p200
aS'http://www.hm.com/us/product/52271?article=52271-A'
p201
aS'http://www.hm.com/us/product/58590?article=58590-F'
p202
aS'http://www.hm.com/us/product/58417?article=58417-A'
p203
aS'http://www.hm.com/us/product/35462?article=35462-B'
p204
aS'http://www.hm.com/us/product/50027?article=50027-A'
p205
aS'http://www.hm.com/us/product/47461?article=47461-A'
p206
aS'http://www.hm.com/us/product/61374?article=61374-A'
p207
aS'http://www.hm.com/us/product/50912?article=50912-A'
p208
aS'http://www.hm.com/us/product/87562?article=87562-B'
p209
aS'http://www.hm.com/us/product/59778?article=59778-A'
p210
aS'http://www.hm.com/us/product/60745?article=60745-A'
p211
aS'http://www.hm.com/us/product/61169?article=61169-A'
p212
aS'http://www.hm.com/us/product/56089?article=56089-B'
p213
aS'http://www.hm.com/us/product/62937?article=62937-A'
p214
aS'http://www.hm.com/us/product/54472?article=54472-A'
p215
aS'http://www.hm.com/us/product/61512?article=61512-A'
p216
aS'http://www.hm.com/us/product/52987?article=52987-G'
p217
aS'http://www.hm.com/us/product/59292?article=59292-A'
p218
aS'http://www.hm.com/us/product/54220?article=54220-A'
p219
aS'http://www.hm.com/us/product/57698?article=57698-A'
p220
aS'http://www.hm.com/us/product/61050?article=61050-A'
p221
aS'http://www.hm.com/us/product/62144?article=62144-C'
p222
aS'http://www.hm.com/us/product/57503?article=57503-A'
p223
aS'http://www.hm.com/us/product/49641?article=49641-B'
p224
aS'http://www.hm.com/us/product/52678?article=52678-A'
p225
aS'http://www.hm.com/us/product/57133?article=57133-A'
p226
aS'http://www.hm.com/us/product/65068?article=65068-A'
p227
aS'http://www.hm.com/us/product/58272?article=58272-A'
p228
aS'http://www.hm.com/us/product/59137?article=59137-A'
p229
aS'http://www.hm.com/us/product/60028?article=60028-B'
p230
aS'http://www.hm.com/us/product/61975?article=61975-C'
p231
aS'http://www.hm.com/us/product/58624?article=58624-B'
p232
aS'http://www.hm.com/us/product/57191?article=57191-A'
p233
aS'http://www.hm.com/us/product/47331?article=47331-H'
p234
aS'http://www.hm.com/us/product/59947?article=59947-B'
p235
aS'http://www.hm.com/us/product/61055?article=61055-A'
p236
aS'http://www.hm.com/us/product/58831?article=58831-B'
p237
aS'http://www.hm.com/us/product/50142?article=50142-G'
p238
aS'http://www.hm.com/us/product/88097?article=88097-J'
p239
aS'http://www.hm.com/us/product/64655?article=64655-B'
p240
aS'http://www.hm.com/us/product/50797?article=50797-I'
p241
aS'http://www.hm.com/us/product/48076?article=48076-B'
p242
aS'http://www.hm.com/us/product/50673?article=50673-A'
p243
aS'http://www.hm.com/us/product/63667?article=63667-B'
p244
aS'http://www.hm.com/us/product/55116?article=55116-A'
p245
aS'http://www.hm.com/us/product/49446?article=49446-A'
p246
aS'http://www.hm.com/us/product/53911?article=53911-B'
p247
aS'http://www.hm.com/us/product/55730?article=55730-A'
p248
aS'http://www.hm.com/us/product/60910?article=60910-E'
p249
aS'http://www.hm.com/us/product/60104?article=60104-H'
p250
aS'http://www.hm.com/us/product/63202?article=63202-E'
p251
aS'http://www.hm.com/us/product/55493?article=55493-A'
p252
aS'http://www.hm.com/us/product/60933?article=60933-A'
p253
aS'http://www.hm.com/us/product/59451?article=59451-E'
p254
aS'http://www.hm.com/us/product/53805?article=53805-A'
p255
aS'http://www.hm.com/us/product/55283?article=55283-A'
p256
aS'http://www.hm.com/us/product/35462?article=35462-A'
p257
aS'http://www.hm.com/us/product/50529?article=50529-B'
p258
aS'http://www.hm.com/us/product/46132?article=46132-D'
p259
aS'http://www.hm.com/us/product/54540?article=54540-A'
p260
aS'http://www.hm.com/us/product/58545?article=58545-A'
p261
aS'http://www.hm.com/us/product/57532?article=57532-B'
p262
aS'http://www.hm.com/us/product/52549?article=52549-F'
p263
aS'http://www.hm.com/us/product/61675?article=61675-B'
p264
aS'http://www.hm.com/us/product/46273?article=46273-D'
p265
aS'http://www.hm.com/us/product/54173?article=54173-A'
p266
aS'http://www.hm.com/us/product/59186?article=59186-B'
p267
aS'http://www.hm.com/us/product/51601?article=51601-A'
p268
aS'http://www.hm.com/us/product/63768?article=63768-A'
p269
aS'http://www.hm.com/us/product/59807?article=59807-A'
p270
aS'http://www.hm.com/us/product/53604?article=53604-A'
p271
aS'http://www.hm.com/us/product/52594?article=52594-A'
p272
aS'http://www.hm.com/us/product/61564?article=61564-E'
p273
aS'http://www.hm.com/us/product/58712?article=58712-A'
p274
aS'http://www.hm.com/us/product/55443?article=55443-C'
p275
aS'http://www.hm.com/us/product/61627?article=61627-C'
p276
aS'http://www.hm.com/us/product/41624?article=41624-L'
p277
aS'http://www.hm.com/us/product/50549?article=50549-B'
p278
aS'http://www.hm.com/us/product/56269?article=56269-A'
p279
aS'http://www.hm.com/us/product/56765?article=56765-A'
p280
aS'http://www.hm.com/us/product/36014?article=36014-B'
p281
aS'http://www.hm.com/us/product/62641?article=62641-A'
p282
aS'http://www.hm.com/us/product/57763?article=57763-B'
p283
aS'http://www.hm.com/us/product/62465?article=62465-A'
p284
aS'http://www.hm.com/us/product/54317?article=54317-A'
p285
aS'http://www.hm.com/us/product/55528?article=55528-A'
p286
aS'http://www.hm.com/us/product/45124?article=45124-A'
p287
aS'http://www.hm.com/us/product/50742?article=50742-I'
p288
aS'http://www.hm.com/us/product/52629?article=52629-A'
p289
aS'http://www.hm.com/us/product/64768?article=64768-B'
p290
aS'http://www.hm.com/us/product/61142?article=61142-A'
p291
aS'http://www.hm.com/us/product/50142?article=50142-F'
p292
aS'http://www.hm.com/us/product/58590?article=58590-J'
p293
aS'http://www.hm.com/us/product/54969?article=54969-A'
p294
aS'http://www.hm.com/us/product/52228?article=52228-A'
p295
aS'http://www.hm.com/us/product/56676?article=56676-A'
p296
aS'http://www.hm.com/us/product/58391?article=58391-C'
p297
aS'http://www.hm.com/us/product/58580?article=58580-D'
p298
aS'http://www.hm.com/us/product/58338?article=58338-A'
p299
aS'http://www.hm.com/us/product/53001?article=53001-I'
p300
aS'http://www.hm.com/us/product/53001?article=53001-I'
p301
aS'http://www.hm.com/us/product/59186?article=59186-C'
p302
aS'http://www.hm.com/us/product/63855?article=63855-B'
p303
aS'http://www.hm.com/us/product/56646?article=56646-B'
p304
aS'http://www.hm.com/us/product/55320?article=55320-A'
p305
aS'http://www.hm.com/us/product/55545?article=55545-C'
p306
aS'http://www.hm.com/us/product/54704?article=54704-A'
p307
aS'http://www.hm.com/us/product/60581?article=60581-A'
p308
aS'http://www.hm.com/us/product/53069?article=53069-B'
p309
aS'http://www.hm.com/us/product/51642?article=51642-A'
p310
aS'http://www.hm.com/us/product/54704?article=54704-B'
p311
aS'http://www.hm.com/us/product/59451?article=59451-B'
p312
aS'http://www.hm.com/us/product/53910?article=53910-C'
p313
aS'http://www.hm.com/us/product/62641?article=62641-B'
p314
aS'http://www.hm.com/us/product/50638?article=50638-A'
p315
aS'http://www.hm.com/us/product/59060?article=59060-B'
p316
aS'http://www.hm.com/us/product/57086?article=57086-A'
p317
aS'http://www.hm.com/us/product/59533?article=59533-A'
p318
aS'http://www.hm.com/us/product/11551?article=11551-K'
p319
aS'http://www.hm.com/us/product/51042?article=51042-A'
p320
aS'http://www.hm.com/us/product/55115?article=55115-A'
p321
aS'http://www.hm.com/us/product/51411?article=51411-D'
p322
aS'http://www.hm.com/us/product/54640?article=54640-D'
p323
aS'http://www.hm.com/us/product/57235?article=57235-A'
p324
aS'http://www.hm.com/us/product/53541?article=53541-A'
p325
aS'http://www.hm.com/us/product/52835?article=52835-A'
p326
aS'http://www.hm.com/us/product/55838?article=55838-B'
p327
aS'http://www.hm.com/us/product/52556?article=52556-A'
p328
aS'http://www.hm.com/us/product/60249?article=60249-A'
p329
aS'http://www.hm.com/us/product/58391?article=58391-B'
p330
aS'http://www.hm.com/us/product/53750?article=53750-C'
p331
aS'http://www.hm.com/us/product/53831?article=53831-B'
p332
aS'http://www.hm.com/us/product/55710?article=55710-A'
p333
aS'http://www.hm.com/us/product/61188?article=61188-B'
p334
aS'http://www.hm.com/us/product/55816?article=55816-A'
p335
aS'http://www.hm.com/us/product/55699?article=55699-C'
p336
aS'http://www.hm.com/us/product/57301?article=57301-A'
p337
aS'http://www.hm.com/us/product/56774?article=56774-A'
p338
aS'http://www.hm.com/us/product/61188?article=61188-C'
p339
aS'http://www.hm.com/us/product/51452?article=51452-A'
p340
aS'http://www.hm.com/us/product/50490?article=50490-A'
p341
aS'http://www.hm.com/us/product/56676?article=56676-B'
p342
aS'http://www.hm.com/us/product/55146?article=55146-B'
p343
aS'http://www.hm.com/us/product/54798?article=54798-A'
p344
aS'http://www.hm.com/us/product/51094?article=51094-A'
p345
aS'http://www.hm.com/us/product/55528?article=55528-B'
p346
aS'http://www.hm.com/us/product/62069?article=62069-A'
p347
aS'http://www.hm.com/us/product/63667?article=63667-A'
p348
aS'http://www.hm.com/us/product/54426?article=54426-F'
p349
aS'http://www.hm.com/us/product/51566?article=51566-E'
p350
aS'http://www.hm.com/us/product/58391?article=58391-A'
p351
aS'http://www.hm.com/us/product/65021?article=65021-A'
p352
aS'http://www.hm.com/us/product/53604?article=53604-C'
p353
aS'http://www.hm.com/us/product/58578?article=58578-A'
p354
aS'http://www.hm.com/us/product/61510?article=61510-A'
p355
aS'http://www.hm.com/us/product/59192?article=59192-A'
p356
aS'http://www.hm.com/us/product/54211?article=54211-A'
p357
aS'http://www.hm.com/us/product/52893?article=52893-A'
p358
aS'http://www.hm.com/us/product/62192?article=62192-A'
p359
aS'http://www.hm.com/us/product/53478?article=53478-A'
p360
aS'http://www.hm.com/us/product/51258?article=51258-C'
p361
aS'http://www.hm.com/us/product/57021?article=57021-A'
p362
aS'http://www.hm.com/us/product/38841?article=38841-Y'
p363
aS'http://www.hm.com/us/product/48076?article=48076-A'
p364
aS'http://www.hm.com/us/product/59072?article=59072-A'
p365
aS'http://www.hm.com/us/product/58589?article=58589-B'
p366
aS'http://www.hm.com/us/product/13689?article=13689-G'
p367
aS'http://www.hm.com/us/product/54036?article=54036-D'
p368
aS'http://www.hm.com/us/product/55816?article=55816-B'
p369
aS'http://www.hm.com/us/product/55200?article=55200-B'
p370
aS'http://www.hm.com/us/product/53604?article=53604-B'
p371
aS'http://www.hm.com/us/product/50151?article=50151-A'
p372
aS'http://www.hm.com/us/product/06885?article=06885-K'
p373
aS'http://www.hm.com/us/product/50976?article=50976-A'
p374
aS'http://www.hm.com/us/product/58952?article=58952-A'
p375
aS'http://www.hm.com/us/product/57819?article=57819-A'
p376
aS'http://www.hm.com/us/product/53467?article=53467-A'
p377
aS'http://www.hm.com/us/product/84936?article=84936-C'
p378
aS'http://www.hm.com/us/product/58099?article=58099-A'
p379
aS'http://www.hm.com/us/product/48776?article=48776-A'
p380
aS'http://www.hm.com/us/product/51566?article=51566-F'
p381
aS'http://www.hm.com/us/product/36056?article=36056-C'
p382
aS'http://www.hm.com/us/product/51380?article=51380-A'
p383
aS'http://www.hm.com/us/product/59061?article=59061-A'
p384
aS'http://www.hm.com/us/product/51643?article=51643-A'
p385
aS'http://www.hm.com/us/product/54727?article=54727-C'
p386
aS'http://www.hm.com/us/product/57076?article=57076-A'
p387
aS'http://www.hm.com/us/product/39163?article=39163-A'
p388
aS'http://www.hm.com/us/product/60292?article=60292-A'
p389
aS'http://www.hm.com/us/product/60056?article=60056-A'
p390
aS'http://www.hm.com/us/product/53462?article=53462-D'
p391
aS'http://www.hm.com/us/product/46132?article=46132-C'
p392
aS'http://www.hm.com/us/product/60081?article=60081-B'
p393
aS'http://www.hm.com/us/product/57356?article=57356-A'
p394
aS'http://www.hm.com/us/product/56540?article=56540-A'
p395
aS'http://www.hm.com/us/product/48184?article=48184-A'
p396
aS'http://www.hm.com/us/product/48615?article=48615-A'
p397
aS'http://www.hm.com/us/product/64131?article=64131-F'
p398
aS'http://www.hm.com/us/product/62505?article=62505-A'
p399
aS'http://www.hm.com/us/product/50027?article=50027-B'
p400
aS'http://www.hm.com/us/product/58420?article=58420-A'
p401
aS'http://www.hm.com/us/product/50743?article=50743-A'
p402
aS'http://www.hm.com/us/product/53095?article=53095-A'
p403
aS'http://www.hm.com/us/product/57191?article=57191-B'
p404
aS'http://www.hm.com/us/product/52505?article=52505-A'
p405
aS'http://www.hm.com/us/product/50831?article=50831-E'
p406
aS'http://www.hm.com/us/product/50549?article=50549-G'
p407
aS'http://www.hm.com/us/product/52549?article=52549-C'
p408
aS'http://www.hm.com/us/product/56125?article=56125-B'
p409
aS'http://www.hm.com/us/product/87562?article=87562-C'
p410
aS'http://www.hm.com/us/product/56147?article=56147-A'
p411
aS'http://www.hm.com/us/product/53190?article=53190-A'
p412
aS'http://www.hm.com/us/product/52355?article=52355-A'
p413
aS'http://www.hm.com/us/product/48682?article=48682-A'
p414
aS'http://www.hm.com/us/product/07701?article=07701-C'
p415
aS'http://www.hm.com/us/product/62069?article=62069-B'
p416
aS'http://www.hm.com/us/product/53493?article=53493-A'
p417
aS'http://www.hm.com/us/product/52602?article=52602-A'
p418
aS'http://www.hm.com/us/product/54039?article=54039-A'
p419
aS'http://www.hm.com/us/product/49867?article=49867-A'
p420
aS'http://www.hm.com/us/product/53034?article=53034-A'
p421
aS'http://www.hm.com/us/product/53924?article=53924-H'
p422
aS'http://www.hm.com/us/product/50320?article=50320-A'
p423
aS'http://www.hm.com/us/product/58457?article=58457-B'
p424
aS'http://www.hm.com/us/product/62128?article=62128-A'
p425
aS'http://www.hm.com/us/product/59061?article=59061-B'
p426
aS'http://www.hm.com/us/product/46573?article=46573-A'
p427
aS'http://www.hm.com/us/product/57004?article=57004-A'
p428
aS'http://www.hm.com/us/product/59474?article=59474-A'
p429
aS'http://www.hm.com/us/product/58450?article=58450-B'
p430
aS'http://www.hm.com/us/product/55072?article=55072-A'
p431
aS'http://www.hm.com/us/product/50549?article=50549-F'
p432
aS'http://www.hm.com/us/product/51355?article=51355-A'
p433
aS'http://www.hm.com/us/product/51452?article=51452-B'
p434
aS'http://www.hm.com/us/product/50644?article=50644-G'
p435
aS'http://www.hm.com/us/product/53343?article=53343-B'
p436
aS'http://www.hm.com/us/product/51280?article=51280-D'
p437
aS'http://www.hm.com/us/product/57419?article=57419-A'
p438
aS'http://www.hm.com/us/product/48686?article=48686-B'
p439
aS'http://www.hm.com/us/product/59347?article=59347-C'
p440
aS'http://www.hm.com/us/product/55825?article=55825-A'
p441
aS'http://www.hm.com/us/product/49865?article=49865-C'
p442
aS'http://www.hm.com/us/product/60627?article=60627-A'
p443
aS'http://www.hm.com/us/product/53743?article=53743-A'
p444
aS'http://www.hm.com/us/product/50532?article=50532-A'
p445
aS'http://www.hm.com/us/product/50639?article=50639-G'
p446
aS'http://www.hm.com/us/product/57235?article=57235-C'
p447
aS'http://www.hm.com/us/product/49692?article=49692-A'
p448
aS'http://www.hm.com/us/product/58338?article=58338-B'
p449
aS'http://www.hm.com/us/product/55251?article=55251-B'
p450
aS'http://www.hm.com/us/product/56172?article=56172-B'
p451
aS'http://www.hm.com/us/product/16394?article=16394-A'
p452
aS'http://www.hm.com/us/product/54066?article=54066-A'
p453
aS'http://www.hm.com/us/product/50868?article=50868-A'
p454
aS'http://www.hm.com/us/product/24768?article=24768-G'
p455
aS'http://www.hm.com/us/product/37426?article=37426-A'
p456
aS'http://www.hm.com/us/product/48068?article=48068-A'
p457
aS'http://www.hm.com/us/product/59060?article=59060-A'
p458
aS'http://www.hm.com/us/product/61668?article=61668-D'
p459
aS'http://www.hm.com/us/product/55795?article=55795-A'
p460
aS'http://www.hm.com/us/product/62436?article=62436-A'
p461
aS'http://www.hm.com/us/product/57222?article=57222-A'
p462
aS'http://www.hm.com/us/product/50656?article=50656-A'
p463
aS'http://www.hm.com/us/product/57683?article=57683-A'
p464
aS'http://www.hm.com/us/product/45077?article=45077-A'
p465
aS'http://www.hm.com/us/product/59533?article=59533-C'
p466
aS'http://www.hm.com/us/product/48686?article=48686-D'
p467
aS'http://www.hm.com/us/product/20102?article=20102-B'
p468
aS'http://www.hm.com/us/product/52736?article=52736-F'
p469
aS'http://www.hm.com/us/product/56749?article=56749-A'
p470
aS'http://www.hm.com/us/product/52690?article=52690-A'
p471
aS'http://www.hm.com/us/product/50909?article=50909-A'
p472
aS'http://www.hm.com/us/product/56496?article=56496-A'
p473
aS'http://www.hm.com/us/product/39199?article=39199-A'
p474
aS'http://www.hm.com/us/product/58578?article=58578-B'
p475
aS'http://www.hm.com/us/product/61072?article=61072-A'
p476
aS'http://www.hm.com/us/product/53189?article=53189-A'
p477
aS'http://www.hm.com/us/product/64019?article=64019-B'
p478
aS'http://www.hm.com/us/product/60627?article=60627-B'
p479
aS'http://www.hm.com/us/product/20397?article=20397-E'
p480
aS'http://www.hm.com/us/product/52160?article=52160-A'
p481
aS'http://www.hm.com/us/product/53712?article=53712-A'
p482
aS'http://www.hm.com/us/product/61799?article=61799-A'
p483
aS'http://www.hm.com/us/product/53480?article=53480-B'
p484
aS'http://www.hm.com/us/product/59068?article=59068-A'
p485
aS'http://www.hm.com/us/product/61975?article=61975-B'
p486
aS'http://www.hm.com/us/product/62641?article=62641-C'
p487
aS'http://www.hm.com/us/product/53497?article=53497-A'
p488
aS'http://www.hm.com/us/product/60934?article=60934-A'
p489
aS'http://www.hm.com/us/product/57161?article=57161-A'
p490
aS'http://www.hm.com/us/product/53457?article=53457-A'
p491
aS'http://www.hm.com/us/product/59690?article=59690-A'
p492
aS'http://www.hm.com/us/product/52563?article=52563-A'
p493
aS'http://www.hm.com/us/product/59813?article=59813-B'
p494
aS'http://www.hm.com/us/product/61365?article=61365-A'
p495
aS'http://www.hm.com/us/product/52899?article=52899-A'
p496
aS'http://www.hm.com/us/product/57017?article=57017-A'
p497
aS'http://www.hm.com/us/product/56141?article=56141-B'
p498
aS'http://www.hm.com/us/product/51018?article=51018-A'
p499
aS'http://www.hm.com/us/product/57020?article=57020-A'
p500
aS'http://www.hm.com/us/product/53669?article=53669-A'
p501
aS'http://www.hm.com/us/product/45630?article=45630-A'
p502
aS'http://www.hm.com/us/product/56488?article=56488-A'
p503
aS'http://www.hm.com/us/product/48134?article=48134-A'
p504
aS'http://www.hm.com/us/product/48185?article=48185-C'
p505
aS'http://www.hm.com/us/product/20003?article=20003-A'
p506
aS'http://www.hm.com/us/product/52563?article=52563-C'
p507
aS'http://www.hm.com/us/product/59813?article=59813-A'
p508
aS'http://www.hm.com/us/product/85528?article=85528-B'
p509
aS'http://www.hm.com/us/product/54297?article=54297-A'
p510
aS'http://www.hm.com/us/product/23619?article=23619-E'
p511
aS'http://www.hm.com/us/product/39716?article=39716-H'
p512
aS'http://www.hm.com/us/product/48738?article=48738-A'
p513
aS'http://www.hm.com/us/product/54660?article=54660-A'
p514
aS'http://www.hm.com/us/product/52571?article=52571-A'
p515
aS'http://www.hm.com/us/product/52736?article=52736-B'
p516
a.