(lp0
S'http://www.hm.com/us/product/60273?article=60273-L'
p1
aS'http://www.hm.com/us/product/64379?article=64379-Y'
p2
aS'http://www.hm.com/us/product/64241?article=64241-Q'
p3
aS'http://www.hm.com/us/product/65453?article=65453-B'
p4
aS'http://www.hm.com/us/product/63766?article=63766-B'
p5
aS'http://www.hm.com/us/product/67364?article=67364-A'
p6
aS'http://www.hm.com/us/product/64489?article=64489-E'
p7
aS'http://www.hm.com/us/product/66555?article=66555-B'
p8
aS'http://www.hm.com/us/product/59667?article=59667-M'
p9
aS'http://www.hm.com/us/product/59667?article=59667-K'
p10
aS'http://www.hm.com/us/product/57860?article=57860-A'
p11
aS'http://www.hm.com/us/product/67091?article=67091-A'
p12
aS'http://www.hm.com/us/product/64815?article=64815-A'
p13
aS'http://www.hm.com/us/product/68277?article=68277-A'
p14
aS'http://www.hm.com/us/product/69629?article=69629-A'
p15
aS'http://www.hm.com/us/product/69629?article=69629-B'
p16
aS'http://www.hm.com/us/product/70168?article=70168-B'
p17
aS'http://www.hm.com/us/product/65192?article=65192-E'
p18
aS'http://www.hm.com/us/product/60786?article=60786-C'
p19
aS'http://www.hm.com/us/product/60786?article=60786-A'
p20
aS'http://www.hm.com/us/product/70168?article=70168-A'
p21
aS'http://www.hm.com/us/product/60244?article=60244-C'
p22
aS'http://www.hm.com/us/product/67062?article=67062-B'
p23
aS'http://www.hm.com/us/product/67648?article=67648-A'
p24
aS'http://www.hm.com/us/product/68662?article=68662-B'
p25
aS'http://www.hm.com/us/product/67062?article=67062-A'
p26
aS'http://www.hm.com/us/product/70423?article=70423-C'
p27
aS'http://www.hm.com/us/product/63656?article=63656-A'
p28
aS'http://www.hm.com/us/product/68662?article=68662-C'
p29
aS'http://www.hm.com/us/product/67401?article=67401-C'
p30
aS'http://www.hm.com/us/product/70423?article=70423-E'
p31
aS'http://www.hm.com/us/product/84793?article=84793-U'
p32
aS'http://www.hm.com/us/product/49519?article=49519-A'
p33
aS'http://www.hm.com/us/product/69019?article=69019-B'
p34
aS'http://www.hm.com/us/product/37353?article=37353-N'
p35
aS'http://www.hm.com/us/product/68690?article=68690-D'
p36
aS'http://www.hm.com/us/product/70423?article=70423-A'
p37
aS'http://www.hm.com/us/product/66717?article=66717-D'
p38
aS'http://www.hm.com/us/product/69629?article=69629-C'
p39
aS'http://www.hm.com/us/product/69629?article=69629-D'
p40
aS'http://www.hm.com/us/product/60273?article=60273-J'
p41
aS'http://www.hm.com/us/product/60273?article=60273-D'
p42
aS'http://www.hm.com/us/product/70666?article=70666-A'
p43
aS'http://www.hm.com/us/product/69584?article=69584-H'
p44
aS'http://www.hm.com/us/product/71029?article=71029-B'
p45
aS'http://www.hm.com/us/product/70920?article=70920-A'
p46
aS'http://www.hm.com/us/product/70406?article=70406-B'
p47
aS'http://www.hm.com/us/product/67123?article=67123-E'
p48
aS'http://www.hm.com/us/product/70920?article=70920-B'
p49
aS'http://www.hm.com/us/product/70741?article=70741-A'
p50
aS'http://www.hm.com/us/product/64379?article=64379-V'
p51
aS'http://www.hm.com/us/product/67123?article=67123-D'
p52
aS'http://www.hm.com/us/product/70666?article=70666-B'
p53
aS'http://www.hm.com/us/product/32638?article=32638-B'
p54
aS'http://www.hm.com/us/product/68690?article=68690-C'
p55
aS'http://www.hm.com/us/product/65192?article=65192-F'
p56
aS'http://www.hm.com/us/product/71132?article=71132-A'
p57
aS'http://www.hm.com/us/product/70406?article=70406-A'
p58
aS'http://www.hm.com/us/product/15183?article=15183-R'
p59
aS'http://www.hm.com/us/product/71132?article=71132-C'
p60
aS'http://www.hm.com/us/product/70666?article=70666-C'
p61
aS'http://www.hm.com/us/product/58138?article=58138-D'
p62
aS'http://www.hm.com/us/product/68047?article=68047-E'
p63
aS'http://www.hm.com/us/product/64241?article=64241-L'
p64
aS'http://www.hm.com/us/product/70741?article=70741-D'
p65
aS'http://www.hm.com/us/product/60357?article=60357-B'
p66
aS'http://www.hm.com/us/product/69552?article=69552-D'
p67
aS'http://www.hm.com/us/product/47138?article=47138-J'
p68
aS'http://www.hm.com/us/product/70741?article=70741-B'
p69
aS'http://www.hm.com/us/product/66467?article=66467-E'
p70
aS'http://www.hm.com/us/product/70004?article=70004-C'
p71
aS'http://www.hm.com/us/product/17150?article=17150-J'
p72
aS'http://www.hm.com/us/product/65409?article=65409-A'
p73
aS'http://www.hm.com/us/product/71101?article=71101-E'
p74
aS'http://www.hm.com/us/product/70895?article=70895-B'
p75
aS'http://www.hm.com/us/product/65876?article=65876-A'
p76
aS'http://www.hm.com/us/product/60883?article=60883-C'
p77
aS'http://www.hm.com/us/product/71029?article=71029-A'
p78
aS'http://www.hm.com/us/product/69552?article=69552-B'
p79
aS'http://www.hm.com/us/product/69552?article=69552-E'
p80
aS'http://www.hm.com/us/product/18867?article=18867-U'
p81
aS'http://www.hm.com/us/product/69019?article=69019-E'
p82
aS'http://www.hm.com/us/product/70003?article=70003-A'
p83
aS'http://www.hm.com/us/product/67519?article=67519-A'
p84
aS'http://www.hm.com/us/product/65707?article=65707-D'
p85
aS'http://www.hm.com/us/product/18867?article=18867-A'
p86
aS'http://www.hm.com/us/product/68860?article=68860-A'
p87
aS'http://www.hm.com/us/product/70577?article=70577-A'
p88
aS'http://www.hm.com/us/product/70869?article=70869-C'
p89
aS'http://www.hm.com/us/product/59684?article=59684-D'
p90
aS'http://www.hm.com/us/product/59326?article=59326-B'
p91
aS'http://www.hm.com/us/product/69347?article=69347-A'
p92
aS'http://www.hm.com/us/product/67123?article=67123-G'
p93
aS'http://www.hm.com/us/product/67701?article=67701-A'
p94
aS'http://www.hm.com/us/product/60786?article=60786-B'
p95
aS'http://www.hm.com/us/product/69019?article=69019-A'
p96
aS'http://www.hm.com/us/product/70660?article=70660-D'
p97
aS'http://www.hm.com/us/product/17150?article=17150-P'
p98
aS'http://www.hm.com/us/product/70741?article=70741-C'
p99
aS'http://www.hm.com/us/product/65192?article=65192-A'
p100
aS'http://www.hm.com/us/product/69552?article=69552-A'
p101
aS'http://www.hm.com/us/product/65707?article=65707-E'
p102
aS'http://www.hm.com/us/product/83904?article=83904-P'
p103
aS'http://www.hm.com/us/product/69574?article=69574-A'
p104
aS'http://www.hm.com/us/product/67515?article=67515-A'
p105
aS'http://www.hm.com/us/product/68728?article=68728-A'
p106
aS'http://www.hm.com/us/product/60883?article=60883-F'
p107
aS'http://www.hm.com/us/product/68734?article=68734-C'
p108
aS'http://www.hm.com/us/product/66386?article=66386-Q'
p109
aS'http://www.hm.com/us/product/70559?article=70559-A'
p110
aS'http://www.hm.com/us/product/68870?article=68870-A'
p111
aS'http://www.hm.com/us/product/69584?article=69584-G'
p112
aS'http://www.hm.com/us/product/61932?article=61932-C'
p113
aS'http://www.hm.com/us/product/65192?article=65192-G'
p114
aS'http://www.hm.com/us/product/69019?article=69019-D'
p115
aS'http://www.hm.com/us/product/71029?article=71029-C'
p116
aS'http://www.hm.com/us/product/70869?article=70869-D'
p117
aS'http://www.hm.com/us/product/60883?article=60883-G'
p118
aS'http://www.hm.com/us/product/58138?article=58138-E'
p119
aS'http://www.hm.com/us/product/66386?article=66386-D'
p120
aS'http://www.hm.com/us/product/67713?article=67713-E'
p121
aS'http://www.hm.com/us/product/70365?article=70365-A'
p122
aS'http://www.hm.com/us/product/68766?article=68766-A'
p123
aS'http://www.hm.com/us/product/64463?article=64463-J'
p124
aS'http://www.hm.com/us/product/66115?article=66115-C'
p125
aS'http://www.hm.com/us/product/65707?article=65707-A'
p126
aS'http://www.hm.com/us/product/62590?article=62590-E'
p127
aS'http://www.hm.com/us/product/67713?article=67713-D'
p128
aS'http://www.hm.com/us/product/66386?article=66386-M'
p129
aS'http://www.hm.com/us/product/64110?article=64110-B'
p130
aS'http://www.hm.com/us/product/67891?article=67891-A'
p131
aS'http://www.hm.com/us/product/65192?article=65192-D'
p132
aS'http://www.hm.com/us/product/65316?article=65316-B'
p133
aS'http://www.hm.com/us/product/62771?article=62771-A'
p134
aS'http://www.hm.com/us/product/63656?article=63656-B'
p135
aS'http://www.hm.com/us/product/18867?article=18867-Y'
p136
aS'http://www.hm.com/us/product/63656?article=63656-C'
p137
aS'http://www.hm.com/us/product/65701?article=65701-C'
p138
aS'http://www.hm.com/us/product/66389?article=66389-A'
p139
aS'http://www.hm.com/us/product/52801?article=52801-A'
p140
aS'http://www.hm.com/us/product/15183?article=15183-S'
p141
aS'http://www.hm.com/us/product/71132?article=71132-B'
p142
aS'http://www.hm.com/us/product/64395?article=64395-B'
p143
aS'http://www.hm.com/us/product/66547?article=66547-A'
p144
aS'http://www.hm.com/us/product/63513?article=63513-D'
p145
aS'http://www.hm.com/us/product/63656?article=63656-D'
p146
aS'http://www.hm.com/us/product/68109?article=68109-A'
p147
aS'http://www.hm.com/us/product/61879?article=61879-Q'
p148
aS'http://www.hm.com/us/product/59326?article=59326-A'
p149
aS'http://www.hm.com/us/product/61171?article=61171-A'
p150
aS'http://www.hm.com/us/product/61879?article=61879-N'
p151
aS'http://www.hm.com/us/product/66386?article=66386-N'
p152
aS'http://www.hm.com/us/product/60786?article=60786-D'
p153
aS'http://www.hm.com/us/product/40161?article=40161-C'
p154
aS'http://www.hm.com/us/product/58785?article=58785-J'
p155
aS'http://www.hm.com/us/product/67261?article=67261-A'
p156
aS'http://www.hm.com/us/product/43113?article=43113-R'
p157
aS'http://www.hm.com/us/product/66467?article=66467-F'
p158
aS'http://www.hm.com/us/product/69562?article=69562-A'
p159
aS'http://www.hm.com/us/product/71101?article=71101-D'
p160
aS'http://www.hm.com/us/product/84793?article=84793-V'
p161
aS'http://www.hm.com/us/product/61699?article=61699-B'
p162
aS'http://www.hm.com/us/product/43305?article=43305-X'
p163
aS'http://www.hm.com/us/product/65701?article=65701-A'
p164
aS'http://www.hm.com/us/product/18867?article=18867-J'
p165
aS'http://www.hm.com/us/product/67123?article=67123-C'
p166
aS'http://www.hm.com/us/product/68997?article=68997-C'
p167
aS'http://www.hm.com/us/product/67509?article=67509-A'
p168
aS'http://www.hm.com/us/product/45497?article=45497-I'
p169
aS'http://www.hm.com/us/product/69027?article=69027-A'
p170
aS'http://www.hm.com/us/product/69734?article=69734-A'
p171
aS'http://www.hm.com/us/product/70869?article=70869-B'
p172
aS'http://www.hm.com/us/product/70874?article=70874-A'
p173
aS'http://www.hm.com/us/product/85691?article=85691-E'
p174
aS'http://www.hm.com/us/product/59864?article=59864-A'
p175
aS'http://www.hm.com/us/product/70629?article=70629-B'
p176
aS'http://www.hm.com/us/product/68734?article=68734-B'
p177
aS'http://www.hm.com/us/product/63563?article=63563-B'
p178
aS'http://www.hm.com/us/product/64160?article=64160-A'
p179
aS'http://www.hm.com/us/product/64263?article=64263-B'
p180
aS'http://www.hm.com/us/product/64263?article=64263-B'
p181
aS'http://www.hm.com/us/product/64073?article=64073-A'
p182
aS'http://www.hm.com/us/product/70161?article=70161-B'
p183
aS'http://www.hm.com/us/product/66578?article=66578-D'
p184
aS'http://www.hm.com/us/product/84793?article=84793-Z'
p185
aS'http://www.hm.com/us/product/64908?article=64908-C'
p186
aS'http://www.hm.com/us/product/87077?article=87077-U'
p187
aS'http://www.hm.com/us/product/69763?article=69763-A'
p188
aS'http://www.hm.com/us/product/71138?article=71138-C'
p189
aS'http://www.hm.com/us/product/42252?article=42252-J'
p190
aS'http://www.hm.com/us/product/60357?article=60357-A'
p191
aS'http://www.hm.com/us/product/69347?article=69347-C'
p192
aS'http://www.hm.com/us/product/43305?article=43305-M'
p193
aS'http://www.hm.com/us/product/62346?article=62346-A'
p194
aS'http://www.hm.com/us/product/44132?article=44132-C'
p195
aS'http://www.hm.com/us/product/66932?article=66932-C'
p196
aS'http://www.hm.com/us/product/59944?article=59944-A'
p197
aS'http://www.hm.com/us/product/62560?article=62560-D'
p198
aS'http://www.hm.com/us/product/70579?article=70579-A'
p199
aS'http://www.hm.com/us/product/65252?article=65252-B'
p200
aS'http://www.hm.com/us/product/86780?article=86780-M'
p201
aS'http://www.hm.com/us/product/70876?article=70876-A'
p202
aS'http://www.hm.com/us/product/71560?article=71560-A'
p203
aS'http://www.hm.com/us/product/60211?article=60211-B'
p204
aS'http://www.hm.com/us/product/43305?article=43305-A'
p205
aS'http://www.hm.com/us/product/65647?article=65647-A'
p206
aS'http://www.hm.com/us/product/62041?article=62041-A'
p207
aS'http://www.hm.com/us/product/64379?article=64379-Q'
p208
aS'http://www.hm.com/us/product/66033?article=66033-D'
p209
aS'http://www.hm.com/us/product/63936?article=63936-C'
p210
aS'http://www.hm.com/us/product/64395?article=64395-A'
p211
aS'http://www.hm.com/us/product/38836?article=38836-C'
p212
aS'http://www.hm.com/us/product/38269?article=38269-E'
p213
aS'http://www.hm.com/us/product/72321?article=72321-B'
p214
aS'http://www.hm.com/us/product/70647?article=70647-A'
p215
aS'http://www.hm.com/us/product/46021?article=46021-J'
p216
aS'http://www.hm.com/us/product/59317?article=59317-A'
p217
aS'http://www.hm.com/us/product/68277?article=68277-D'
p218
aS'http://www.hm.com/us/product/70570?article=70570-A'
p219
aS'http://www.hm.com/us/product/68852?article=68852-B'
p220
aS'http://www.hm.com/us/product/61455?article=61455-A'
p221
aS'http://www.hm.com/us/product/63552?article=63552-A'
p222
aS'http://www.hm.com/us/product/70876?article=70876-B'
p223
aS'http://www.hm.com/us/product/64241?article=64241-M'
p224
aS'http://www.hm.com/us/product/61644?article=61644-A'
p225
aS'http://www.hm.com/us/product/65223?article=65223-C'
p226
aS'http://www.hm.com/us/product/67414?article=67414-A'
p227
aS'http://www.hm.com/us/product/64795?article=64795-B'
p228
aS'http://www.hm.com/us/product/67123?article=67123-F'
p229
aS'http://www.hm.com/us/product/67546?article=67546-E'
p230
aS'http://www.hm.com/us/product/67713?article=67713-B'
p231
aS'http://www.hm.com/us/product/65042?article=65042-A'
p232
aS'http://www.hm.com/us/product/65476?article=65476-B'
p233
aS'http://www.hm.com/us/product/69584?article=69584-I'
p234
aS'http://www.hm.com/us/product/64780?article=64780-A'
p235
aS'http://www.hm.com/us/product/70106?article=70106-A'
p236
aS'http://www.hm.com/us/product/66841?article=66841-A'
p237
aS'http://www.hm.com/us/product/38810?article=38810-C'
p238
aS'http://www.hm.com/us/product/66290?article=66290-C'
p239
aS'http://www.hm.com/us/product/38008?article=38008-E'
p240
aS'http://www.hm.com/us/product/66483?article=66483-C'
p241
aS'http://www.hm.com/us/product/13848?article=13848-A'
p242
aS'http://www.hm.com/us/product/49563?article=49563-E'
p243
aS'http://www.hm.com/us/product/62744?article=62744-E'
p244
aS'http://www.hm.com/us/product/84793?article=84793-Y'
p245
aS'http://www.hm.com/us/product/69954?article=69954-A'
p246
aS'http://www.hm.com/us/product/43113?article=43113-Z'
p247
aS'http://www.hm.com/us/product/67570?article=67570-A'
p248
aS'http://www.hm.com/us/product/65246?article=65246-D'
p249
aS'http://www.hm.com/us/product/69574?article=69574-B'
p250
aS'http://www.hm.com/us/product/66389?article=66389-B'
p251
aS'http://www.hm.com/us/product/65881?article=65881-B'
p252
aS'http://www.hm.com/us/product/60357?article=60357-C'
p253
aS'http://www.hm.com/us/product/71138?article=71138-B'
p254
aS'http://www.hm.com/us/product/67546?article=67546-B'
p255
aS'http://www.hm.com/us/product/67713?article=67713-C'
p256
aS'http://www.hm.com/us/product/86780?article=86780-N'
p257
aS'http://www.hm.com/us/product/61879?article=61879-C'
p258
aS'http://www.hm.com/us/product/58785?article=58785-H'
p259
aS'http://www.hm.com/us/product/48659?article=48659-C'
p260
aS'http://www.hm.com/us/product/65707?article=65707-F'
p261
aS'http://www.hm.com/us/product/68275?article=68275-D'
p262
aS'http://www.hm.com/us/product/68330?article=68330-A'
p263
aS'http://www.hm.com/us/product/65166?article=65166-A'
p264
aS'http://www.hm.com/us/product/83936?article=83936-B'
p265
aS'http://www.hm.com/us/product/66033?article=66033-C'
p266
aS'http://www.hm.com/us/product/65985?article=65985-A'
p267
aS'http://www.hm.com/us/product/66718?article=66718-A'
p268
aS'http://www.hm.com/us/product/38854?article=38854-R'
p269
aS'http://www.hm.com/us/product/61910?article=61910-F'
p270
aS'http://www.hm.com/us/product/04770?article=04770-B'
p271
aS'http://www.hm.com/us/product/65333?article=65333-A'
p272
aS'http://www.hm.com/us/product/39154?article=39154-A'
p273
aS'http://www.hm.com/us/product/70796?article=70796-A'
p274
aS'http://www.hm.com/us/product/57941?article=57941-A'
p275
aS'http://www.hm.com/us/product/70560?article=70560-A'
p276
aS'http://www.hm.com/us/product/66252?article=66252-A'
p277
aS'http://www.hm.com/us/product/83903?article=83903-Z'
p278
aS'http://www.hm.com/us/product/70876?article=70876-C'
p279
aS'http://www.hm.com/us/product/43595?article=43595-I'
p280
aS'http://www.hm.com/us/product/64110?article=64110-A'
p281
aS'http://www.hm.com/us/product/67546?article=67546-A'
p282
aS'http://www.hm.com/us/product/63105?article=63105-E'
p283
aS'http://www.hm.com/us/product/65319?article=65319-A'
p284
aS'http://www.hm.com/us/product/59637?article=59637-C'
p285
aS'http://www.hm.com/us/product/66275?article=66275-A'
p286
aS'http://www.hm.com/us/product/68158?article=68158-C'
p287
aS'http://www.hm.com/us/product/54107?article=54107-B'
p288
aS'http://www.hm.com/us/product/68742?article=68742-A'
p289
aS'http://www.hm.com/us/product/69347?article=69347-D'
p290
aS'http://www.hm.com/us/product/66311?article=66311-A'
p291
aS'http://www.hm.com/us/product/49274?article=49274-M'
p292
aS'http://www.hm.com/us/product/67600?article=67600-A'
p293
aS'http://www.hm.com/us/product/83904?article=83904-I'
p294
aS'http://www.hm.com/us/product/62965?article=62965-J'
p295
aS'http://www.hm.com/us/product/69567?article=69567-B'
p296
aS'http://www.hm.com/us/product/64161?article=64161-D'
p297
aS'http://www.hm.com/us/product/60689?article=60689-A'
p298
aS'http://www.hm.com/us/product/70457?article=70457-C'
p299
aS'http://www.hm.com/us/product/68395?article=68395-B'
p300
aS'http://www.hm.com/us/product/68020?article=68020-B'
p301
aS'http://www.hm.com/us/product/64036?article=64036-B'
p302
aS'http://www.hm.com/us/product/63513?article=63513-C'
p303
aS'http://www.hm.com/us/product/62590?article=62590-B'
p304
aS'http://www.hm.com/us/product/38008?article=38008-D'
p305
aS'http://www.hm.com/us/product/65701?article=65701-B'
p306
aS'http://www.hm.com/us/product/68793?article=68793-B'
p307
aS'http://www.hm.com/us/product/65819?article=65819-A'
p308
aS'http://www.hm.com/us/product/62041?article=62041-D'
p309
aS'http://www.hm.com/us/product/70865?article=70865-A'
p310
aS'http://www.hm.com/us/product/45497?article=45497-H'
p311
aS'http://www.hm.com/us/product/04770?article=04770-D'
p312
aS'http://www.hm.com/us/product/62461?article=62461-A'
p313
aS'http://www.hm.com/us/product/59637?article=59637-A'
p314
aS'http://www.hm.com/us/product/71050?article=71050-B'
p315
aS'http://www.hm.com/us/product/43719?article=43719-D'
p316
aS'http://www.hm.com/us/product/65147?article=65147-D'
p317
aS'http://www.hm.com/us/product/64281?article=64281-B'
p318
aS'http://www.hm.com/us/product/66249?article=66249-A'
p319
aS'http://www.hm.com/us/product/32638?article=32638-I'
p320
aS'http://www.hm.com/us/product/57748?article=57748-A'
p321
aS'http://www.hm.com/us/product/49563?article=49563-C'
p322
aS'http://www.hm.com/us/product/87077?article=87077-X'
p323
aS'http://www.hm.com/us/product/62590?article=62590-A'
p324
aS'http://www.hm.com/us/product/70629?article=70629-C'
p325
aS'http://www.hm.com/us/product/63513?article=63513-A'
p326
aS'http://www.hm.com/us/product/64787?article=64787-C'
p327
aS'http://www.hm.com/us/product/68144?article=68144-B'
p328
aS'http://www.hm.com/us/product/53186?article=53186-N'
p329
aS'http://www.hm.com/us/product/70100?article=70100-A'
p330
aS'http://www.hm.com/us/product/57954?article=57954-A'
p331
aS'http://www.hm.com/us/product/66649?article=66649-B'
p332
aS'http://www.hm.com/us/product/52166?article=52166-J'
p333
aS'http://www.hm.com/us/product/57954?article=57954-B'
p334
aS'http://www.hm.com/us/product/70660?article=70660-C'
p335
aS'http://www.hm.com/us/product/66531?article=66531-A'
p336
aS'http://www.hm.com/us/product/69042?article=69042-A'
p337
aS'http://www.hm.com/us/product/67244?article=67244-B'
p338
aS'http://www.hm.com/us/product/63105?article=63105-C'
p339
aS'http://www.hm.com/us/product/67292?article=67292-B'
p340
aS'http://www.hm.com/us/product/71138?article=71138-E'
p341
aS'http://www.hm.com/us/product/66305?article=66305-B'
p342
aS'http://www.hm.com/us/product/47595?article=47595-A'
p343
aS'http://www.hm.com/us/product/67481?article=67481-B'
p344
aS'http://www.hm.com/us/product/70629?article=70629-A'
p345
aS'http://www.hm.com/us/product/61699?article=61699-D'
p346
aS'http://www.hm.com/us/product/67673?article=67673-C'
p347
aS'http://www.hm.com/us/product/67089?article=67089-A'
p348
aS'http://www.hm.com/us/product/58785?article=58785-E'
p349
aS'http://www.hm.com/us/product/63615?article=63615-B'
p350
aS'http://www.hm.com/us/product/65460?article=65460-B'
p351
aS'http://www.hm.com/us/product/68665?article=68665-B'
p352
aS'http://www.hm.com/us/product/65206?article=65206-B'
p353
aS'http://www.hm.com/us/product/83903?article=83903-Q'
p354
aS'http://www.hm.com/us/product/68100?article=68100-C'
p355
aS'http://www.hm.com/us/product/43595?article=43595-F'
p356
aS'http://www.hm.com/us/product/66171?article=66171-A'
p357
aS'http://www.hm.com/us/product/61771?article=61771-A'
p358
aS'http://www.hm.com/us/product/67793?article=67793-A'
p359
aS'http://www.hm.com/us/product/64066?article=64066-B'
p360
aS'http://www.hm.com/us/product/67546?article=67546-C'
p361
aS'http://www.hm.com/us/product/67248?article=67248-D'
p362
aS'http://www.hm.com/us/product/65843?article=65843-A'
p363
aS'http://www.hm.com/us/product/67442?article=67442-A'
p364
aS'http://www.hm.com/us/product/65160?article=65160-A'
p365
aS'http://www.hm.com/us/product/60048?article=60048-C'
p366
aS'http://www.hm.com/us/product/65707?article=65707-B'
p367
aS'http://www.hm.com/us/product/64073?article=64073-B'
p368
aS'http://www.hm.com/us/product/87793?article=87793-K'
p369
aS'http://www.hm.com/us/product/70865?article=70865-B'
p370
aS'http://www.hm.com/us/product/42004?article=42004-T'
p371
aS'http://www.hm.com/us/product/68277?article=68277-C'
p372
aS'http://www.hm.com/us/product/63153?article=63153-A'
p373
aS'http://www.hm.com/us/product/40161?article=40161-G'
p374
aS'http://www.hm.com/us/product/64281?article=64281-F'
p375
aS'http://www.hm.com/us/product/63552?article=63552-C'
p376
aS'http://www.hm.com/us/product/40161?article=40161-H'
p377
aS'http://www.hm.com/us/product/58138?article=58138-A'
p378
aS'http://www.hm.com/us/product/63766?article=63766-C'
p379
aS'http://www.hm.com/us/product/64666?article=64666-E'
p380
aS'http://www.hm.com/us/product/57947?article=57947-A'
p381
aS'http://www.hm.com/us/product/64204?article=64204-A'
p382
aS'http://www.hm.com/us/product/71024?article=71024-B'
p383
aS'http://www.hm.com/us/product/43595?article=43595-H'
p384
aS'http://www.hm.com/us/product/59503?article=59503-E'
p385
aS'http://www.hm.com/us/product/70828?article=70828-A'
p386
aS'http://www.hm.com/us/product/62719?article=62719-C'
p387
aS'http://www.hm.com/us/product/63513?article=63513-B'
p388
aS'http://www.hm.com/us/product/63507?article=63507-A'
p389
aS'http://www.hm.com/us/product/66290?article=66290-B'
p390
aS'http://www.hm.com/us/product/49292?article=49292-N'
p391
aS'http://www.hm.com/us/product/68876?article=68876-B'
p392
aS'http://www.hm.com/us/product/70615?article=70615-B'
p393
aS'http://www.hm.com/us/product/69215?article=69215-A'
p394
aS'http://www.hm.com/us/product/69054?article=69054-A'
p395
aS'http://www.hm.com/us/product/61680?article=61680-F'
p396
aS'http://www.hm.com/us/product/04770?article=04770-A'
p397
aS'http://www.hm.com/us/product/60804?article=60804-A'
p398
aS'http://www.hm.com/us/product/69134?article=69134-B'
p399
aS'http://www.hm.com/us/product/61932?article=61932-B'
p400
aS'http://www.hm.com/us/product/67180?article=67180-B'
p401
aS'http://www.hm.com/us/product/59667?article=59667-N'
p402
aS'http://www.hm.com/us/product/66837?article=66837-C'
p403
aS'http://www.hm.com/us/product/61939?article=61939-A'
p404
aS'http://www.hm.com/us/product/63485?article=63485-B'
p405
aS'http://www.hm.com/us/product/01614?article=01614-A'
p406
aS'http://www.hm.com/us/product/67567?article=67567-A'
p407
aS'http://www.hm.com/us/product/51523?article=51523-F'
p408
aS'http://www.hm.com/us/product/38269?article=38269-X'
p409
aS'http://www.hm.com/us/product/68058?article=68058-A'
p410
aS'http://www.hm.com/us/product/66126?article=66126-A'
p411
aS'http://www.hm.com/us/product/49292?article=49292-P'
p412
aS'http://www.hm.com/us/product/65379?article=65379-B'
p413
aS'http://www.hm.com/us/product/61680?article=61680-R'
p414
aS'http://www.hm.com/us/product/38286?article=38286-K'
p415
aS'http://www.hm.com/us/product/67302?article=67302-B'
p416
aS'http://www.hm.com/us/product/64859?article=64859-B'
p417
aS'http://www.hm.com/us/product/62168?article=62168-B'
p418
aS'http://www.hm.com/us/product/67515?article=67515-B'
p419
aS'http://www.hm.com/us/product/70478?article=70478-B'
p420
aS'http://www.hm.com/us/product/67566?article=67566-B'
p421
aS'http://www.hm.com/us/product/69421?article=69421-C'
p422
aS'http://www.hm.com/us/product/49274?article=49274-L'
p423
aS'http://www.hm.com/us/product/66379?article=66379-A'
p424
aS'http://www.hm.com/us/product/43944?article=43944-B'
p425
aS'http://www.hm.com/us/product/62924?article=62924-B'
p426
aS'http://www.hm.com/us/product/64281?article=64281-A'
p427
aS'http://www.hm.com/us/product/69421?article=69421-D'
p428
aS'http://www.hm.com/us/product/83904?article=83904-Q'
p429
aS'http://www.hm.com/us/product/68928?article=68928-A'
p430
aS'http://www.hm.com/us/product/64908?article=64908-B'
p431
aS'http://www.hm.com/us/product/49519?article=49519-B'
p432
aS'http://www.hm.com/us/product/70581?article=70581-C'
p433
aS'http://www.hm.com/us/product/64161?article=64161-A'
p434
aS'http://www.hm.com/us/product/58754?article=58754-A'
p435
aS'http://www.hm.com/us/product/63739?article=63739-B'
p436
aS'http://www.hm.com/us/product/66483?article=66483-E'
p437
aS'http://www.hm.com/us/product/42004?article=42004-H'
p438
aS'http://www.hm.com/us/product/70004?article=70004-B'
p439
aS'http://www.hm.com/us/product/67248?article=67248-C'
p440
aS'http://www.hm.com/us/product/66656?article=66656-A'
p441
aS'http://www.hm.com/us/product/70876?article=70876-F'
p442
aS'http://www.hm.com/us/product/60218?article=60218-A'
p443
aS'http://www.hm.com/us/product/67777?article=67777-C'
p444
aS'http://www.hm.com/us/product/66962?article=66962-A'
p445
aS'http://www.hm.com/us/product/70722?article=70722-A'
p446
aS'http://www.hm.com/us/product/60799?article=60799-A'
p447
aS'http://www.hm.com/us/product/59159?article=59159-E'
p448
aS'http://www.hm.com/us/product/62512?article=62512-E'
p449
aS'http://www.hm.com/us/product/38269?article=38269-F'
p450
aS'http://www.hm.com/us/product/69193?article=69193-D'
p451
aS'http://www.hm.com/us/product/66531?article=66531-B'
p452
aS'http://www.hm.com/us/product/70161?article=70161-C'
p453
aS'http://www.hm.com/us/product/70660?article=70660-A'
p454
aS'http://www.hm.com/us/product/83936?article=83936-C'
p455
aS'http://www.hm.com/us/product/39071?article=39071-S'
p456
aS'http://www.hm.com/us/product/64036?article=64036-C'
p457
aS'http://www.hm.com/us/product/66037?article=66037-B'
p458
aS'http://www.hm.com/us/product/69019?article=69019-C'
p459
aS'http://www.hm.com/us/product/64073?article=64073-D'
p460
aS'http://www.hm.com/us/product/69671?article=69671-A'
p461
aS'http://www.hm.com/us/product/67142?article=67142-A'
p462
aS'http://www.hm.com/us/product/61879?article=61879-P'
p463
aS'http://www.hm.com/us/product/70429?article=70429-B'
p464
aS'http://www.hm.com/us/product/68444?article=68444-B'
p465
aS'http://www.hm.com/us/product/71050?article=71050-A'
p466
aS'http://www.hm.com/us/product/65529?article=65529-A'
p467
aS'http://www.hm.com/us/product/69100?article=69100-B'
p468
aS'http://www.hm.com/us/product/60412?article=60412-A'
p469
aS'http://www.hm.com/us/product/70869?article=70869-A'
p470
aS'http://www.hm.com/us/product/67141?article=67141-A'
p471
aS'http://www.hm.com/us/product/44412?article=44412-H'
p472
aS'http://www.hm.com/us/product/59573?article=59573-A'
p473
aS'http://www.hm.com/us/product/38810?article=38810-E'
p474
aS'http://www.hm.com/us/product/61722?article=61722-Q'
p475
aS'http://www.hm.com/us/product/70944?article=70944-C'
p476
aS'http://www.hm.com/us/product/38217?article=38217-J'
p477
aS'http://www.hm.com/us/product/66525?article=66525-C'
p478
aS'http://www.hm.com/us/product/66649?article=66649-C'
p479
aS'http://www.hm.com/us/product/58327?article=58327-B'
p480
aS'http://www.hm.com/us/product/66578?article=66578-F'
p481
aS'http://www.hm.com/us/product/63461?article=63461-A'
p482
aS'http://www.hm.com/us/product/70446?article=70446-A'
p483
aS'http://www.hm.com/us/product/66472?article=66472-A'
p484
aS'http://www.hm.com/us/product/66483?article=66483-B'
p485
aS'http://www.hm.com/us/product/66994?article=66994-A'
p486
aS'http://www.hm.com/us/product/66143?article=66143-D'
p487
aS'http://www.hm.com/us/product/66225?article=66225-A'
p488
aS'http://www.hm.com/us/product/60308?article=60308-A'
p489
aS'http://www.hm.com/us/product/62091?article=62091-A'
p490
aS'http://www.hm.com/us/product/68876?article=68876-C'
p491
aS'http://www.hm.com/us/product/70006?article=70006-A'
p492
aS'http://www.hm.com/us/product/68847?article=68847-A'
p493
aS'http://www.hm.com/us/product/64140?article=64140-B'
p494
aS'http://www.hm.com/us/product/67606?article=67606-A'
p495
aS'http://www.hm.com/us/product/69766?article=69766-A'
p496
aS'http://www.hm.com/us/product/65379?article=65379-A'
p497
aS'http://www.hm.com/us/product/64438?article=64438-A'
p498
aS'http://www.hm.com/us/product/49292?article=49292-A'
p499
aS'http://www.hm.com/us/product/67714?article=67714-A'
p500
aS'http://www.hm.com/us/product/69567?article=69567-A'
p501
aS'http://www.hm.com/us/product/69027?article=69027-B'
p502
aS'http://www.hm.com/us/product/67208?article=67208-F'
p503
aS'http://www.hm.com/us/product/66359?article=66359-C'
p504
aS'http://www.hm.com/us/product/65517?article=65517-A'
p505
aS'http://www.hm.com/us/product/67300?article=67300-A'
p506
aS'http://www.hm.com/us/product/66533?article=66533-B'
p507
aS'http://www.hm.com/us/product/46021?article=46021-K'
p508
aS'http://www.hm.com/us/product/52268?article=52268-A'
p509
aS'http://www.hm.com/us/product/71138?article=71138-D'
p510
aS'http://www.hm.com/us/product/68399?article=68399-A'
p511
aS'http://www.hm.com/us/product/67106?article=67106-D'
p512
aS'http://www.hm.com/us/product/62664?article=62664-F'
p513
aS'http://www.hm.com/us/product/70828?article=70828-B'
p514
aS'http://www.hm.com/us/product/59864?article=59864-F'
p515
aS'http://www.hm.com/us/product/26769?article=26769-Y'
p516
aS'http://www.hm.com/us/product/62041?article=62041-B'
p517
aS'http://www.hm.com/us/product/64066?article=64066-C'
p518
aS'http://www.hm.com/us/product/61680?article=61680-Q'
p519
aS'http://www.hm.com/us/product/67710?article=67710-C'
p520
aS'http://www.hm.com/us/product/68460?article=68460-B'
p521
aS'http://www.hm.com/us/product/65651?article=65651-A'
p522
aS'http://www.hm.com/us/product/70502?article=70502-A'
p523
aS'http://www.hm.com/us/product/68852?article=68852-A'
p524
aS'http://www.hm.com/us/product/68665?article=68665-A'
p525
aS'http://www.hm.com/us/product/47273?article=47273-I'
p526
aS'http://www.hm.com/us/product/64666?article=64666-A'
p527
aS'http://www.hm.com/us/product/59828?article=59828-D'
p528
aS'http://www.hm.com/us/product/61539?article=61539-A'
p529
aS'http://www.hm.com/us/product/64908?article=64908-A'
p530
aS'http://www.hm.com/us/product/49485?article=49485-D'
p531
aS'http://www.hm.com/us/product/42252?article=42252-I'
p532
aS'http://www.hm.com/us/product/59159?article=59159-F'
p533
aS'http://www.hm.com/us/product/68296?article=68296-A'
p534
aS'http://www.hm.com/us/product/70457?article=70457-E'
p535
aS'http://www.hm.com/us/product/68488?article=68488-A'
p536
aS'http://www.hm.com/us/product/67260?article=67260-A'
p537
aS'http://www.hm.com/us/product/43113?article=43113-X'
p538
aS'http://www.hm.com/us/product/66483?article=66483-A'
p539
aS'http://www.hm.com/us/product/67401?article=67401-D'
p540
aS'http://www.hm.com/us/product/67986?article=67986-B'
p541
aS'http://www.hm.com/us/product/43305?article=43305-T'
p542
aS'http://www.hm.com/us/product/67701?article=67701-B'
p543
aS'http://www.hm.com/us/product/71209?article=71209-C'
p544
aS'http://www.hm.com/us/product/07622?article=07622-C'
p545
aS'http://www.hm.com/us/product/64036?article=64036-A'
p546
aS'http://www.hm.com/us/product/62965?article=62965-F'
p547
aS'http://www.hm.com/us/product/65147?article=65147-A'
p548
aS'http://www.hm.com/us/product/61834?article=61834-A'
p549
aS'http://www.hm.com/us/product/30962?article=30962-Q'
p550
aS'http://www.hm.com/us/product/66143?article=66143-C'
p551
aS'http://www.hm.com/us/product/66191?article=66191-A'
p552
aS'http://www.hm.com/us/product/06094?article=06094-A'
p553
aS'http://www.hm.com/us/product/86780?article=86780-I'
p554
aS'http://www.hm.com/us/product/50306?article=50306-A'
p555
aS'http://www.hm.com/us/product/60756?article=60756-B'
p556
aS'http://www.hm.com/us/product/47273?article=47273-A'
p557
aS'http://www.hm.com/us/product/38217?article=38217-G'
p558
aS'http://www.hm.com/us/product/66528?article=66528-A'
p559
aS'http://www.hm.com/us/product/84793?article=84793-T'
p560
aS'http://www.hm.com/us/product/70446?article=70446-B'
p561
aS'http://www.hm.com/us/product/70003?article=70003-B'
p562
aS'http://www.hm.com/us/product/58785?article=58785-P'
p563
aS'http://www.hm.com/us/product/59149?article=59149-C'
p564
aS'http://www.hm.com/us/product/70100?article=70100-B'
p565
aS'http://www.hm.com/us/product/83903?article=83903-Y'
p566
aS'http://www.hm.com/us/product/68100?article=68100-B'
p567
aS'http://www.hm.com/us/product/64806?article=64806-I'
p568
aS'http://www.hm.com/us/product/61931?article=61931-K'
p569
aS'http://www.hm.com/us/product/40439?article=40439-C'
p570
aS'http://www.hm.com/us/product/64808?article=64808-C'
p571
aS'http://www.hm.com/us/product/66565?article=66565-B'
p572
aS'http://www.hm.com/us/product/53051?article=53051-D'
p573
aS'http://www.hm.com/us/product/63512?article=63512-B'
p574
aS'http://www.hm.com/us/product/59445?article=59445-E'
p575
aS'http://www.hm.com/us/product/44029?article=44029-N'
p576
aS'http://www.hm.com/us/product/59659?article=59659-G'
p577
aS'http://www.hm.com/us/product/67853?article=67853-B'
p578
aS'http://www.hm.com/us/product/69459?article=69459-D'
p579
aS'http://www.hm.com/us/product/67154?article=67154-B'
p580
aS'http://www.hm.com/us/product/67147?article=67147-A'
p581
aS'http://www.hm.com/us/product/58011?article=58011-C'
p582
aS'http://www.hm.com/us/product/66529?article=66529-A'
p583
aS'http://www.hm.com/us/product/70581?article=70581-B'
p584
aS'http://www.hm.com/us/product/65881?article=65881-A'
p585
aS'http://www.hm.com/us/product/70281?article=70281-B'
p586
aS'http://www.hm.com/us/product/59350?article=59350-H'
p587
aS'http://www.hm.com/us/product/44412?article=44412-F'
p588
aS'http://www.hm.com/us/product/63428?article=63428-A'
p589
aS'http://www.hm.com/us/product/57966?article=57966-A'
p590
aS'http://www.hm.com/us/product/49853?article=49853-D'
p591
aS'http://www.hm.com/us/product/63172?article=63172-G'
p592
aS'http://www.hm.com/us/product/52564?article=52564-C'
p593
aS'http://www.hm.com/us/product/68856?article=68856-A'
p594
aS'http://www.hm.com/us/product/64263?article=64263-C'
p595
aS'http://www.hm.com/us/product/61910?article=61910-E'
p596
aS'http://www.hm.com/us/product/69051?article=69051-A'
p597
aS'http://www.hm.com/us/product/68347?article=68347-B'
p598
aS'http://www.hm.com/us/product/65028?article=65028-B'
p599
aS'http://www.hm.com/us/product/65185?article=65185-A'
p600
aS'http://www.hm.com/us/product/65185?article=65185-A'
p601
aS'http://www.hm.com/us/product/64140?article=64140-A'
p602
aS'http://www.hm.com/us/product/70708?article=70708-B'
p603
aS'http://www.hm.com/us/product/62512?article=62512-C'
p604
aS'http://www.hm.com/us/product/65185?article=65185-B'
p605
aS'http://www.hm.com/us/product/87793?article=87793-I'
p606
aS'http://www.hm.com/us/product/66060?article=66060-A'
p607
aS'http://www.hm.com/us/product/69223?article=69223-A'
p608
aS'http://www.hm.com/us/product/64456?article=64456-B'
p609
aS'http://www.hm.com/us/product/61337?article=61337-A'
p610
aS'http://www.hm.com/us/product/68118?article=68118-A'
p611
aS'http://www.hm.com/us/product/67673?article=67673-A'
p612
aS'http://www.hm.com/us/product/67298?article=67298-B'
p613
aS'http://www.hm.com/us/product/61776?article=61776-A'
p614
aS'http://www.hm.com/us/product/53186?article=53186-I'
p615
aS'http://www.hm.com/us/product/50997?article=50997-C'
p616
aS'http://www.hm.com/us/product/70281?article=70281-C'
p617
aS'http://www.hm.com/us/product/70103?article=70103-B'
p618
aS'http://www.hm.com/us/product/58539?article=58539-E'
p619
aS'http://www.hm.com/us/product/64791?article=64791-C'
p620
aS'http://www.hm.com/us/product/67241?article=67241-A'
p621
aS'http://www.hm.com/us/product/66985?article=66985-C'
p622
aS'http://www.hm.com/us/product/67674?article=67674-E'
p623
aS'http://www.hm.com/us/product/69091?article=69091-A'
p624
aS'http://www.hm.com/us/product/58874?article=58874-C'
p625
aS'http://www.hm.com/us/product/65246?article=65246-C'
p626
aS'http://www.hm.com/us/product/70876?article=70876-E'
p627
aS'http://www.hm.com/us/product/00832?article=00832-V'
p628
aS'http://www.hm.com/us/product/65975?article=65975-B'
p629
aS'http://www.hm.com/us/product/36184?article=36184-C'
p630
aS'http://www.hm.com/us/product/68275?article=68275-A'
p631
aS'http://www.hm.com/us/product/60106?article=60106-A'
p632
aS'http://www.hm.com/us/product/69581?article=69581-B'
p633
aS'http://www.hm.com/us/product/67778?article=67778-B'
p634
aS'http://www.hm.com/us/product/68490?article=68490-A'
p635
aS'http://www.hm.com/us/product/64007?article=64007-C'
p636
aS'http://www.hm.com/us/product/62653?article=62653-D'
p637
aS'http://www.hm.com/us/product/68122?article=68122-A'
p638
aS'http://www.hm.com/us/product/66309?article=66309-A'
p639
aS'http://www.hm.com/us/product/68219?article=68219-A'
p640
aS'http://www.hm.com/us/product/49567?article=49567-B'
p641
aS'http://www.hm.com/us/product/69421?article=69421-B'
p642
aS'http://www.hm.com/us/product/64975?article=64975-C'
p643
aS'http://www.hm.com/us/product/49712?article=49712-U'
p644
aS'http://www.hm.com/us/product/67467?article=67467-B'
p645
aS'http://www.hm.com/us/product/66922?article=66922-A'
p646
aS'http://www.hm.com/us/product/64402?article=64402-A'
p647
aS'http://www.hm.com/us/product/62739?article=62739-A'
p648
aS'http://www.hm.com/us/product/63766?article=63766-A'
p649
aS'http://www.hm.com/us/product/19252?article=19252-L'
p650
aS'http://www.hm.com/us/product/07560?article=07560-Q'
p651
aS'http://www.hm.com/us/product/66185?article=66185-A'
p652
aS'http://www.hm.com/us/product/71039?article=71039-A'
p653
aS'http://www.hm.com/us/product/68196?article=68196-A'
p654
aS'http://www.hm.com/us/product/66890?article=66890-A'
p655
aS'http://www.hm.com/us/product/68670?article=68670-A'
p656
aS'http://www.hm.com/us/product/66889?article=66889-A'
p657
aS'http://www.hm.com/us/product/63153?article=63153-B'
p658
aS'http://www.hm.com/us/product/69839?article=69839-B'
p659
aS'http://www.hm.com/us/product/61836?article=61836-J'
p660
aS'http://www.hm.com/us/product/71162?article=71162-C'
p661
aS'http://www.hm.com/us/product/61879?article=61879-H'
p662
aS'http://www.hm.com/us/product/70003?article=70003-C'
p663
aS'http://www.hm.com/us/product/61954?article=61954-B'
p664
aS'http://www.hm.com/us/product/69438?article=69438-A'
p665
aS'http://www.hm.com/us/product/64641?article=64641-A'
p666
aS'http://www.hm.com/us/product/37924?article=37924-B'
p667
aS'http://www.hm.com/us/product/49270?article=49270-A'
p668
aS'http://www.hm.com/us/product/65881?article=65881-D'
p669
aS'http://www.hm.com/us/product/66359?article=66359-B'
p670
aS'http://www.hm.com/us/product/61092?article=61092-J'
p671
aS'http://www.hm.com/us/product/52166?article=52166-I'
p672
aS'http://www.hm.com/us/product/59350?article=59350-I'
p673
aS'http://www.hm.com/us/product/68947?article=68947-A'
p674
aS'http://www.hm.com/us/product/63336?article=63336-A'
p675
aS'http://www.hm.com/us/product/18867?article=18867-Z'
p676
aS'http://www.hm.com/us/product/62154?article=62154-A'
p677
aS'http://www.hm.com/us/product/64666?article=64666-D'
p678
aS'http://www.hm.com/us/product/64859?article=64859-C'
p679
aS'http://www.hm.com/us/product/50523?article=50523-B'
p680
aS'http://www.hm.com/us/product/67161?article=67161-B'
p681
aS'http://www.hm.com/us/product/70742?article=70742-B'
p682
aS'http://www.hm.com/us/product/12941?article=12941-G'
p683
aS'http://www.hm.com/us/product/66926?article=66926-B'
p684
aS'http://www.hm.com/us/product/66793?article=66793-A'
p685
aS'http://www.hm.com/us/product/66799?article=66799-A'
p686
aS'http://www.hm.com/us/product/52020?article=52020-F'
p687
aS'http://www.hm.com/us/product/65028?article=65028-A'
p688
aS'http://www.hm.com/us/product/64204?article=64204-B'
p689
aS'http://www.hm.com/us/product/56422?article=56422-A'
p690
aS'http://www.hm.com/us/product/68913?article=68913-A'
p691
aS'http://www.hm.com/us/product/67554?article=67554-A'
p692
aS'http://www.hm.com/us/product/64796?article=64796-D'
p693
aS'http://www.hm.com/us/product/67546?article=67546-D'
p694
aS'http://www.hm.com/us/product/64641?article=64641-B'
p695
aS'http://www.hm.com/us/product/66803?article=66803-A'
p696
aS'http://www.hm.com/us/product/65845?article=65845-E'
p697
aS'http://www.hm.com/us/product/59320?article=59320-B'
p698
aS'http://www.hm.com/us/product/58011?article=58011-E'
p699
aS'http://www.hm.com/us/product/70429?article=70429-A'
p700
aS'http://www.hm.com/us/product/66191?article=66191-B'
p701
aS'http://www.hm.com/us/product/60006?article=60006-D'
p702
aS'http://www.hm.com/us/product/65056?article=65056-A'
p703
aS'http://www.hm.com/us/product/64669?article=64669-A'
p704
aS'http://www.hm.com/us/product/68718?article=68718-A'
p705
aS'http://www.hm.com/us/product/66305?article=66305-A'
p706
aS'http://www.hm.com/us/product/65309?article=65309-A'
p707
aS'http://www.hm.com/us/product/71037?article=71037-A'
p708
aS'http://www.hm.com/us/product/68876?article=68876-A'
p709
aS'http://www.hm.com/us/product/63755?article=63755-C'
p710
aS'http://www.hm.com/us/product/64140?article=64140-H'
p711
aS'http://www.hm.com/us/product/64795?article=64795-G'
p712
aS'http://www.hm.com/us/product/65985?article=65985-B'
p713
aS'http://www.hm.com/us/product/60011?article=60011-B'
p714
aS'http://www.hm.com/us/product/09747?article=09747-I'
p715
aS'http://www.hm.com/us/product/68025?article=68025-A'
p716
aS'http://www.hm.com/us/product/86780?article=86780-L'
p717
aS'http://www.hm.com/us/product/70823?article=70823-B'
p718
aS'http://www.hm.com/us/product/38269?article=38269-R'
p719
aS'http://www.hm.com/us/product/63512?article=63512-C'
p720
aS'http://www.hm.com/us/product/49409?article=49409-A'
p721
aS'http://www.hm.com/us/product/53031?article=53031-E'
p722
aS'http://www.hm.com/us/product/41646?article=41646-L'
p723
aS'http://www.hm.com/us/product/66297?article=66297-A'
p724
aS'http://www.hm.com/us/product/36184?article=36184-B'
p725
aS'http://www.hm.com/us/product/68768?article=68768-B'
p726
aS'http://www.hm.com/us/product/61423?article=61423-A'
p727
aS'http://www.hm.com/us/product/66453?article=66453-A'
p728
aS'http://www.hm.com/us/product/65182?article=65182-D'
p729
aS'http://www.hm.com/us/product/43595?article=43595-E'
p730
aS'http://www.hm.com/us/product/62347?article=62347-A'
p731
aS'http://www.hm.com/us/product/62507?article=62507-I'
p732
aS'http://www.hm.com/us/product/65658?article=65658-B'
p733
aS'http://www.hm.com/us/product/59416?article=59416-A'
p734
aS'http://www.hm.com/us/product/61985?article=61985-B'
p735
aS'http://www.hm.com/us/product/64463?article=64463-F'
p736
aS'http://www.hm.com/us/product/67256?article=67256-A'
p737
aS'http://www.hm.com/us/product/49507?article=49507-A'
p738
aS'http://www.hm.com/us/product/70479?article=70479-E'
p739
aS'http://www.hm.com/us/product/66922?article=66922-C'
p740
aS'http://www.hm.com/us/product/48090?article=48090-C'
p741
aS'http://www.hm.com/us/product/65332?article=65332-A'
p742
aS'http://www.hm.com/us/product/68207?article=68207-A'
p743
aS'http://www.hm.com/us/product/29143?article=29143-X'
p744
aS'http://www.hm.com/us/product/69044?article=69044-A'
p745
aS'http://www.hm.com/us/product/68046?article=68046-A'
p746
aS'http://www.hm.com/us/product/67793?article=67793-B'
p747
aS'http://www.hm.com/us/product/64438?article=64438-B'
p748
aS'http://www.hm.com/us/product/66522?article=66522-A'
p749
aS'http://www.hm.com/us/product/67241?article=67241-A'
p750
aS'http://www.hm.com/us/product/66533?article=66533-C'
p751
aS'http://www.hm.com/us/product/67128?article=67128-A'
p752
aS'http://www.hm.com/us/product/61680?article=61680-K'
p753
aS'http://www.hm.com/us/product/69716?article=69716-B'
p754
aS'http://www.hm.com/us/product/69488?article=69488-A'
p755
aS'http://www.hm.com/us/product/64922?article=64922-A'
p756
aS'http://www.hm.com/us/product/67777?article=67777-B'
p757
aS'http://www.hm.com/us/product/38854?article=38854-J'
p758
aS'http://www.hm.com/us/product/64489?article=64489-A'
p759
aS'http://www.hm.com/us/product/69956?article=69956-B'
p760
aS'http://www.hm.com/us/product/58593?article=58593-G'
p761
aS'http://www.hm.com/us/product/61931?article=61931-H'
p762
aS'http://www.hm.com/us/product/58625?article=58625-A'
p763
aS'http://www.hm.com/us/product/42046?article=42046-C'
p764
aS'http://www.hm.com/us/product/69100?article=69100-A'
p765
aS'http://www.hm.com/us/product/43593?article=43593-D'
p766
aS'http://www.hm.com/us/product/67054?article=67054-A'
p767
aS'http://www.hm.com/us/product/68716?article=68716-A'
p768
aS'http://www.hm.com/us/product/63202?article=63202-F'
p769
aS'http://www.hm.com/us/product/65544?article=65544-C'
p770
aS'http://www.hm.com/us/product/65182?article=65182-C'
p771
aS'http://www.hm.com/us/product/67248?article=67248-A'
p772
aS'http://www.hm.com/us/product/66483?article=66483-D'
p773
aS'http://www.hm.com/us/product/70593?article=70593-B'
p774
aS'http://www.hm.com/us/product/63042?article=63042-A'
p775
aS'http://www.hm.com/us/product/66635?article=66635-B'
p776
aS'http://www.hm.com/us/product/62698?article=62698-B'
p777
aS'http://www.hm.com/us/product/59350?article=59350-K'
p778
aS'http://www.hm.com/us/product/67733?article=67733-A'
p779
aS'http://www.hm.com/us/product/69473?article=69473-A'
p780
aS'http://www.hm.com/us/product/67569?article=67569-A'
p781
aS'http://www.hm.com/us/product/65692?article=65692-A'
p782
aS'http://www.hm.com/us/product/62060?article=62060-D'
p783
aS'http://www.hm.com/us/product/66926?article=66926-A'
p784
aS'http://www.hm.com/us/product/68395?article=68395-E'
p785
aS'http://www.hm.com/us/product/49470?article=49470-L'
p786
aS'http://www.hm.com/us/product/62643?article=62643-G'
p787
aS'http://www.hm.com/us/product/64838?article=64838-B'
p788
aS'http://www.hm.com/us/product/67130?article=67130-A'
p789
aS'http://www.hm.com/us/product/70434?article=70434-A'
p790
aS'http://www.hm.com/us/product/64796?article=64796-E'
p791
aS'http://www.hm.com/us/product/67415?article=67415-B'
p792
aS'http://www.hm.com/us/product/59659?article=59659-I'
p793
aS'http://www.hm.com/us/product/44132?article=44132-I'
p794
aS'http://www.hm.com/us/product/53844?article=53844-B'
p795
aS'http://www.hm.com/us/product/37359?article=37359-A'
p796
aS'http://www.hm.com/us/product/42004?article=42004-S'
p797
aS'http://www.hm.com/us/product/49853?article=49853-G'
p798
aS'http://www.hm.com/us/product/68628?article=68628-A'
p799
aS'http://www.hm.com/us/product/59503?article=59503-A'
p800
aS'http://www.hm.com/us/product/66041?article=66041-A'
p801
aS'http://www.hm.com/us/product/64806?article=64806-H'
p802
aS'http://www.hm.com/us/product/61771?article=61771-B'
p803
aS'http://www.hm.com/us/product/65185?article=65185-D'
p804
aS'http://www.hm.com/us/product/70442?article=70442-A'
p805
aS'http://www.hm.com/us/product/66157?article=66157-C'
p806
aS'http://www.hm.com/us/product/67777?article=67777-A'
p807
aS'http://www.hm.com/us/product/61931?article=61931-D'
p808
aS'http://www.hm.com/us/product/67896?article=67896-B'
p809
aS'http://www.hm.com/us/product/54356?article=54356-C'
p810
aS'http://www.hm.com/us/product/67307?article=67307-A'
p811
aS'http://www.hm.com/us/product/67427?article=67427-A'
p812
aS'http://www.hm.com/us/product/70517?article=70517-B'
p813
aS'http://www.hm.com/us/product/64761?article=64761-A'
p814
aS'http://www.hm.com/us/product/51187?article=51187-D'
p815
aS'http://www.hm.com/us/product/67920?article=67920-A'
p816
aS'http://www.hm.com/us/product/71822?article=71822-B'
p817
aS'http://www.hm.com/us/product/69070?article=69070-A'
p818
aS'http://www.hm.com/us/product/66649?article=66649-D'
p819
aS'http://www.hm.com/us/product/65845?article=65845-A'
p820
aS'http://www.hm.com/us/product/59790?article=59790-D'
p821
aS'http://www.hm.com/us/product/64476?article=64476-B'
p822
aS'http://www.hm.com/us/product/64859?article=64859-A'
p823
aS'http://www.hm.com/us/product/70792?article=70792-A'
p824
aS'http://www.hm.com/us/product/60334?article=60334-A'
p825
aS'http://www.hm.com/us/product/70185?article=70185-A'
p826
aS'http://www.hm.com/us/product/64839?article=64839-A'
p827
aS'http://www.hm.com/us/product/64840?article=64840-C'
p828
aS'http://www.hm.com/us/product/63954?article=63954-B'
p829
aS'http://www.hm.com/us/product/67847?article=67847-A'
p830
aS'http://www.hm.com/us/product/70833?article=70833-B'
p831
aS'http://www.hm.com/us/product/67826?article=67826-A'
p832
aS'http://www.hm.com/us/product/70373?article=70373-C'
p833
aS'http://www.hm.com/us/product/66290?article=66290-A'
p834
aS'http://www.hm.com/us/product/67248?article=67248-B'
p835
aS'http://www.hm.com/us/product/53159?article=53159-C'
p836
aS'http://www.hm.com/us/product/64281?article=64281-G'
p837
aS'http://www.hm.com/us/product/65706?article=65706-A'
p838
aS'http://www.hm.com/us/product/61803?article=61803-I'
p839
aS'http://www.hm.com/us/product/69455?article=69455-C'
p840
aS'http://www.hm.com/us/product/49853?article=49853-E'
p841
aS'http://www.hm.com/us/product/70088?article=70088-A'
p842
aS'http://www.hm.com/us/product/66504?article=66504-A'
p843
aS'http://www.hm.com/us/product/62212?article=62212-B'
p844
aS'http://www.hm.com/us/product/61478?article=61478-C'
p845
aS'http://www.hm.com/us/product/65706?article=65706-B'
p846
aS'http://www.hm.com/us/product/69459?article=69459-C'
p847
aS'http://www.hm.com/us/product/64795?article=64795-F'
p848
aS'http://www.hm.com/us/product/63755?article=63755-B'
p849
aS'http://www.hm.com/us/product/65246?article=65246-A'
p850
aS'http://www.hm.com/us/product/64066?article=64066-A'
p851
aS'http://www.hm.com/us/product/37353?article=37353-A'
p852
aS'http://www.hm.com/us/product/59350?article=59350-F'
p853
aS'http://www.hm.com/us/product/69134?article=69134-C'
p854
aS'http://www.hm.com/us/product/64140?article=64140-G'
p855
aS'http://www.hm.com/us/product/61156?article=61156-A'
p856
aS'http://www.hm.com/us/product/63860?article=63860-A'
p857
aS'http://www.hm.com/us/product/68793?article=68793-A'
p858
aS'http://www.hm.com/us/product/68561?article=68561-A'
p859
aS'http://www.hm.com/us/product/70281?article=70281-A'
p860
aS'http://www.hm.com/us/product/69528?article=69528-A'
p861
aS'http://www.hm.com/us/product/30962?article=30962-P'
p862
aS'http://www.hm.com/us/product/67425?article=67425-A'
p863
aS'http://www.hm.com/us/product/68098?article=68098-A'
p864
aS'http://www.hm.com/us/product/69490?article=69490-B'
p865
aS'http://www.hm.com/us/product/65646?article=65646-A'
p866
aS'http://www.hm.com/us/product/61954?article=61954-A'
p867
aS'http://www.hm.com/us/product/64953?article=64953-C'
p868
aS'http://www.hm.com/us/product/67509?article=67509-B'
p869
aS'http://www.hm.com/us/product/70039?article=70039-A'
p870
aS'http://www.hm.com/us/product/65843?article=65843-B'
p871
aS'http://www.hm.com/us/product/64273?article=64273-B'
p872
aS'http://www.hm.com/us/product/61996?article=61996-G'
p873
aS'http://www.hm.com/us/product/71044?article=71044-A'
p874
aS'http://www.hm.com/us/product/66379?article=66379-B'
p875
aS'http://www.hm.com/us/product/65572?article=65572-C'
p876
aS'http://www.hm.com/us/product/61784?article=61784-B'
p877
aS'http://www.hm.com/us/product/62512?article=62512-D'
p878
aS'http://www.hm.com/us/product/80816?article=80816-J'
p879
aS'http://www.hm.com/us/product/61156?article=61156-B'
p880
aS'http://www.hm.com/us/product/64806?article=64806-A'
p881
aS'http://www.hm.com/us/product/09747?article=09747-A'
p882
aS'http://www.hm.com/us/product/70823?article=70823-A'
p883
aS'http://www.hm.com/us/product/61972?article=61972-C'
p884
aS'http://www.hm.com/us/product/67793?article=67793-D'
p885
aS'http://www.hm.com/us/product/67695?article=67695-A'
p886
aS'http://www.hm.com/us/product/59093?article=59093-H'
p887
aS'http://www.hm.com/us/product/58539?article=58539-A'
p888
aS'http://www.hm.com/us/product/63480?article=63480-A'
p889
aS'http://www.hm.com/us/product/60244?article=60244-D'
p890
aS'http://www.hm.com/us/product/42004?article=42004-M'
p891
aS'http://www.hm.com/us/product/59797?article=59797-A'
p892
aS'http://www.hm.com/us/product/67511?article=67511-B'
p893
aS'http://www.hm.com/us/product/46021?article=46021-E'
p894
aS'http://www.hm.com/us/product/41646?article=41646-Q'
p895
aS'http://www.hm.com/us/product/70517?article=70517-A'
p896
aS'http://www.hm.com/us/product/69172?article=69172-A'
p897
aS'http://www.hm.com/us/product/66127?article=66127-A'
p898
aS'http://www.hm.com/us/product/69051?article=69051-B'
p899
aS'http://www.hm.com/us/product/69956?article=69956-A'
p900
aS'http://www.hm.com/us/product/38217?article=38217-K'
p901
aS'http://www.hm.com/us/product/59790?article=59790-B'
p902
aS'http://www.hm.com/us/product/64942?article=64942-B'
p903
aS'http://www.hm.com/us/product/66525?article=66525-A'
p904
aS'http://www.hm.com/us/product/68395?article=68395-D'
p905
aS'http://www.hm.com/us/product/38836?article=38836-D'
p906
aS'http://www.hm.com/us/product/30022?article=30022-A'
p907
aS'http://www.hm.com/us/product/67673?article=67673-B'
p908
aS'http://www.hm.com/us/product/63767?article=63767-A'
p909
aS'http://www.hm.com/us/product/60218?article=60218-B'
p910
aS'http://www.hm.com/us/product/70309?article=70309-B'
p911
aS'http://www.hm.com/us/product/62698?article=62698-A'
p912
aS'http://www.hm.com/us/product/49470?article=49470-K'
p913
aS'http://www.hm.com/us/product/63569?article=63569-A'
p914
aS'http://www.hm.com/us/product/59659?article=59659-A'
p915
aS'http://www.hm.com/us/product/67825?article=67825-A'
p916
aS'http://www.hm.com/us/product/85691?article=85691-D'
p917
aS'http://www.hm.com/us/product/49290?article=49290-A'
p918
aS'http://www.hm.com/us/product/61650?article=61650-A'
p919
aS'http://www.hm.com/us/product/66317?article=66317-A'
p920
aS'http://www.hm.com/us/product/64123?article=64123-B'
p921
aS'http://www.hm.com/us/product/62715?article=62715-A'
p922
aS'http://www.hm.com/us/product/70742?article=70742-C'
p923
aS'http://www.hm.com/us/product/38217?article=38217-L'
p924
aS'http://www.hm.com/us/product/56453?article=56453-A'
p925
aS'http://www.hm.com/us/product/65822?article=65822-A'
p926
aS'http://www.hm.com/us/product/64674?article=64674-A'
p927
aS'http://www.hm.com/us/product/65964?article=65964-B'
p928
aS'http://www.hm.com/us/product/63042?article=63042-B'
p929
aS'http://www.hm.com/us/product/49398?article=49398-F'
p930
aS'http://www.hm.com/us/product/56680?article=56680-F'
p931
aS'http://www.hm.com/us/product/45126?article=45126-B'
p932
aS'http://www.hm.com/us/product/69733?article=69733-C'
p933
aS'http://www.hm.com/us/product/65460?article=65460-A'
p934
aS'http://www.hm.com/us/product/62578?article=62578-A'
p935
aS'http://www.hm.com/us/product/65950?article=65950-B'
p936
aS'http://www.hm.com/us/product/69304?article=69304-B'
p937
aS'http://www.hm.com/us/product/69356?article=69356-C'
p938
aS'http://www.hm.com/us/product/70005?article=70005-A'
p939
aS'http://www.hm.com/us/product/65488?article=65488-A'
p940
aS'http://www.hm.com/us/product/70505?article=70505-B'
p941
aS'http://www.hm.com/us/product/44029?article=44029-H'
p942
aS'http://www.hm.com/us/product/66837?article=66837-A'
p943
aS'http://www.hm.com/us/product/62653?article=62653-B'
p944
aS'http://www.hm.com/us/product/63701?article=63701-B'
p945
aS'http://www.hm.com/us/product/63225?article=63225-A'
p946
aS'http://www.hm.com/us/product/62257?article=62257-A'
p947
aS'http://www.hm.com/us/product/70477?article=70477-C'
p948
aS'http://www.hm.com/us/product/68420?article=68420-A'
p949
aS'http://www.hm.com/us/product/64939?article=64939-D'
p950
aS'http://www.hm.com/us/product/84644?article=84644-G'
p951
aS'http://www.hm.com/us/product/65491?article=65491-A'
p952
aS'http://www.hm.com/us/product/60006?article=60006-E'
p953
aS'http://www.hm.com/us/product/61417?article=61417-B'
p954
aS'http://www.hm.com/us/product/61697?article=61697-B'
p955
aS'http://www.hm.com/us/product/65950?article=65950-A'
p956
aS'http://www.hm.com/us/product/65005?article=65005-A'
p957
aS'http://www.hm.com/us/product/61002?article=61002-A'
p958
aS'http://www.hm.com/us/product/68346?article=68346-A'
p959
aS'http://www.hm.com/us/product/68275?article=68275-C'
p960
aS'http://www.hm.com/us/product/59138?article=59138-C'
p961
aS'http://www.hm.com/us/product/68564?article=68564-B'
p962
aS'http://www.hm.com/us/product/65286?article=65286-A'
p963
aS'http://www.hm.com/us/product/60739?article=60739-A'
p964
aS'http://www.hm.com/us/product/59667?article=59667-L'
p965
aS'http://www.hm.com/us/product/65456?article=65456-A'
p966
aS'http://www.hm.com/us/product/66159?article=66159-B'
p967
aS'http://www.hm.com/us/product/72577?article=72577-A'
p968
aS'http://www.hm.com/us/product/64856?article=64856-B'
p969
aS'http://www.hm.com/us/product/61723?article=61723-C'
p970
aS'http://www.hm.com/us/product/63701?article=63701-C'
p971
aS'http://www.hm.com/us/product/43593?article=43593-E'
p972
aS'http://www.hm.com/us/product/46021?article=46021-I'
p973
aS'http://www.hm.com/us/product/61947?article=61947-C'
p974
aS'http://www.hm.com/us/product/67481?article=67481-A'
p975
aS'http://www.hm.com/us/product/59212?article=59212-A'
p976
aS'http://www.hm.com/us/product/65699?article=65699-A'
p977
aS'http://www.hm.com/us/product/63146?article=63146-A'
p978
aS'http://www.hm.com/us/product/70146?article=70146-A'
p979
aS'http://www.hm.com/us/product/44029?article=44029-K'
p980
aS'http://www.hm.com/us/product/64131?article=64131-P'
p981
aS'http://www.hm.com/us/product/68444?article=68444-A'
p982
aS'http://www.hm.com/us/product/65975?article=65975-A'
p983
aS'http://www.hm.com/us/product/66525?article=66525-B'
p984
aS'http://www.hm.com/us/product/61417?article=61417-A'
p985
aS'http://www.hm.com/us/product/67303?article=67303-C'
p986
aS'http://www.hm.com/us/product/68629?article=68629-A'
p987
aS'http://www.hm.com/us/product/67302?article=67302-C'
p988
aS'http://www.hm.com/us/product/59944?article=59944-B'
p989
aS'http://www.hm.com/us/product/62060?article=62060-C'
p990
aS'http://www.hm.com/us/product/64953?article=64953-A'
p991
aS'http://www.hm.com/us/product/49487?article=49487-A'
p992
aS'http://www.hm.com/us/product/69549?article=69549-B'
p993
aS'http://www.hm.com/us/product/66301?article=66301-A'
p994
aS'http://www.hm.com/us/product/67074?article=67074-B'
p995
aS'http://www.hm.com/us/product/64797?article=64797-C'
p996
aS'http://www.hm.com/us/product/61903?article=61903-F'
p997
aS'http://www.hm.com/us/product/62461?article=62461-C'
p998
aS'http://www.hm.com/us/product/62664?article=62664-D'
p999
aS'http://www.hm.com/us/product/68654?article=68654-D'
p1000
aS'http://www.hm.com/us/product/68139?article=68139-B'
p1001
aS'http://www.hm.com/us/product/61310?article=61310-C'
p1002
aS'http://www.hm.com/us/product/69428?article=69428-B'
p1003
aS'http://www.hm.com/us/product/66555?article=66555-E'
p1004
aS'http://www.hm.com/us/product/66196?article=66196-F'
p1005
aS'http://www.hm.com/us/product/46819?article=46819-B'
p1006
aS'http://www.hm.com/us/product/64131?article=64131-V'
p1007
aS'http://www.hm.com/us/product/64263?article=64263-A'
p1008
aS'http://www.hm.com/us/product/58630?article=58630-B'
p1009
aS'http://www.hm.com/us/product/61467?article=61467-J'
p1010
aS'http://www.hm.com/us/product/70146?article=70146-B'
p1011
aS'http://www.hm.com/us/product/59690?article=59690-D'
p1012
aS'http://www.hm.com/us/product/67794?article=67794-B'
p1013
aS'http://www.hm.com/us/product/65020?article=65020-A'
p1014
aS'http://www.hm.com/us/product/70437?article=70437-A'
p1015
aS'http://www.hm.com/us/product/64905?article=64905-A'
p1016
aS'http://www.hm.com/us/product/65520?article=65520-C'
p1017
aS'http://www.hm.com/us/product/61745?article=61745-C'
p1018
aS'http://www.hm.com/us/product/64939?article=64939-F'
p1019
aS'http://www.hm.com/us/product/12941?article=12941-E'
p1020
aS'http://www.hm.com/us/product/66142?article=66142-A'
p1021
aS'http://www.hm.com/us/product/59823?article=59823-A'
p1022
aS'http://www.hm.com/us/product/63470?article=63470-A'
p1023
aS'http://www.hm.com/us/product/47273?article=47273-H'
p1024
aS'http://www.hm.com/us/product/83903?article=83903-P'
p1025
aS'http://www.hm.com/us/product/69847?article=69847-A'
p1026
aS'http://www.hm.com/us/product/07560?article=07560-U'
p1027
aS'http://www.hm.com/us/product/67129?article=67129-A'
p1028
aS'http://www.hm.com/us/product/07622?article=07622-R'
p1029
aS'http://www.hm.com/us/product/62500?article=62500-A'
p1030
aS'http://www.hm.com/us/product/61680?article=61680-S'
p1031
aS'http://www.hm.com/us/product/70581?article=70581-A'
p1032
aS'http://www.hm.com/us/product/65870?article=65870-A'
p1033
aS'http://www.hm.com/us/product/66649?article=66649-E'
p1034
aS'http://www.hm.com/us/product/69733?article=69733-B'
p1035
aS'http://www.hm.com/us/product/37104?article=37104-A'
p1036
aS'http://www.hm.com/us/product/59708?article=59708-A'
p1037
aS'http://www.hm.com/us/product/16345?article=16345-G'
p1038
aS'http://www.hm.com/us/product/70792?article=70792-B'
p1039
aS'http://www.hm.com/us/product/64209?article=64209-B'
p1040
aS'http://www.hm.com/us/product/65039?article=65039-A'
p1041
aS'http://www.hm.com/us/product/63833?article=63833-A'
p1042
aS'http://www.hm.com/us/product/66115?article=66115-A'
p1043
aS'http://www.hm.com/us/product/51523?article=51523-G'
p1044
aS'http://www.hm.com/us/product/64853?article=64853-C'
p1045
aS'http://www.hm.com/us/product/65028?article=65028-E'
p1046
aS'http://www.hm.com/us/product/29159?article=29159-B'
p1047
aS'http://www.hm.com/us/product/66799?article=66799-B'
p1048
aS'http://www.hm.com/us/product/60108?article=60108-A'
p1049
aS'http://www.hm.com/us/product/65702?article=65702-A'
p1050
aS'http://www.hm.com/us/product/61910?article=61910-D'
p1051
aS'http://www.hm.com/us/product/64131?article=64131-E'
p1052
aS'http://www.hm.com/us/product/61903?article=61903-G'
p1053
aS'http://www.hm.com/us/product/68050?article=68050-B'
p1054
aS'http://www.hm.com/us/product/43661?article=43661-E'
p1055
aS'http://www.hm.com/us/product/62091?article=62091-B'
p1056
aS'http://www.hm.com/us/product/69425?article=69425-A'
p1057
aS'http://www.hm.com/us/product/66451?article=66451-A'
p1058
aS'http://www.hm.com/us/product/66921?article=66921-B'
p1059
aS'http://www.hm.com/us/product/59828?article=59828-H'
p1060
aS'http://www.hm.com/us/product/66901?article=66901-A'
p1061
aS'http://www.hm.com/us/product/61478?article=61478-F'
p1062
aS'http://www.hm.com/us/product/64418?article=64418-A'
p1063
aS'http://www.hm.com/us/product/44029?article=44029-L'
p1064
aS'http://www.hm.com/us/product/70043?article=70043-A'
p1065
aS'http://www.hm.com/us/product/67541?article=67541-A'
p1066
aS'http://www.hm.com/us/product/48804?article=48804-D'
p1067
aS'http://www.hm.com/us/product/67986?article=67986-A'
p1068
aS'http://www.hm.com/us/product/61786?article=61786-A'
p1069
aS'http://www.hm.com/us/product/65531?article=65531-A'
p1070
aS'http://www.hm.com/us/product/61996?article=61996-I'
p1071
aS'http://www.hm.com/us/product/69097?article=69097-B'
p1072
aS'http://www.hm.com/us/product/57882?article=57882-A'
p1073
aS'http://www.hm.com/us/product/67401?article=67401-B'
p1074
aS'http://www.hm.com/us/product/70615?article=70615-A'
p1075
aS'http://www.hm.com/us/product/65838?article=65838-A'
p1076
aS'http://www.hm.com/us/product/68842?article=68842-B'
p1077
aS'http://www.hm.com/us/product/65803?article=65803-A'
p1078
aS'http://www.hm.com/us/product/69489?article=69489-A'
p1079
aS'http://www.hm.com/us/product/80816?article=80816-C'
p1080
aS'http://www.hm.com/us/product/80816?article=80816-C'
p1081
aS'http://www.hm.com/us/product/62455?article=62455-B'
p1082
aS'http://www.hm.com/us/product/63783?article=63783-A'
p1083
aS'http://www.hm.com/us/product/66911?article=66911-A'
p1084
aS'http://www.hm.com/us/product/64331?article=64331-B'
p1085
aS'http://www.hm.com/us/product/60851?article=60851-C'
p1086
aS'http://www.hm.com/us/product/62734?article=62734-B'
p1087
aS'http://www.hm.com/us/product/62590?article=62590-F'
p1088
aS'http://www.hm.com/us/product/60262?article=60262-F'
p1089
aS'http://www.hm.com/us/product/68063?article=68063-A'
p1090
aS'http://www.hm.com/us/product/62734?article=62734-A'
p1091
aS'http://www.hm.com/us/product/44029?article=44029-G'
p1092
aS'http://www.hm.com/us/product/69193?article=69193-B'
p1093
aS'http://www.hm.com/us/product/61411?article=61411-A'
p1094
aS'http://www.hm.com/us/product/62507?article=62507-E'
p1095
aS'http://www.hm.com/us/product/70944?article=70944-A'
p1096
aS'http://www.hm.com/us/product/67511?article=67511-C'
p1097
aS'http://www.hm.com/us/product/69437?article=69437-B'
p1098
aS'http://www.hm.com/us/product/69390?article=69390-A'
p1099
aS'http://www.hm.com/us/product/65402?article=65402-A'
p1100
aS'http://www.hm.com/us/product/44975?article=44975-F'
p1101
aS'http://www.hm.com/us/product/60626?article=60626-D'
p1102
aS'http://www.hm.com/us/product/69637?article=69637-A'
p1103
aS'http://www.hm.com/us/product/61478?article=61478-J'
p1104
aS'http://www.hm.com/us/product/30022?article=30022-M'
p1105
aS'http://www.hm.com/us/product/67628?article=67628-A'
p1106
aS'http://www.hm.com/us/product/70673?article=70673-B'
p1107
aS'http://www.hm.com/us/product/64904?article=64904-A'
p1108
aS'http://www.hm.com/us/product/68796?article=68796-A'
p1109
aS'http://www.hm.com/us/product/66345?article=66345-A'
p1110
aS'http://www.hm.com/us/product/42004?article=42004-L'
p1111
aS'http://www.hm.com/us/product/65402?article=65402-C'
p1112
aS'http://www.hm.com/us/product/65028?article=65028-D'
p1113
aS'http://www.hm.com/us/product/64797?article=64797-A'
p1114
aS'http://www.hm.com/us/product/69637?article=69637-B'
p1115
aS'http://www.hm.com/us/product/86780?article=86780-H'
p1116
aS'http://www.hm.com/us/product/65845?article=65845-D'
p1117
aS'http://www.hm.com/us/product/70834?article=70834-A'
p1118
aS'http://www.hm.com/us/product/61686?article=61686-K'
p1119
aS'http://www.hm.com/us/product/63947?article=63947-A'
p1120
aS'http://www.hm.com/us/product/62728?article=62728-A'
p1121
aS'http://www.hm.com/us/product/60006?article=60006-I'
p1122
aS'http://www.hm.com/us/product/66816?article=66816-A'
p1123
aS'http://www.hm.com/us/product/62091?article=62091-C'
p1124
aS'http://www.hm.com/us/product/67575?article=67575-A'
p1125
aS'http://www.hm.com/us/product/63741?article=63741-A'
p1126
aS'http://www.hm.com/us/product/61581?article=61581-E'
p1127
aS'http://www.hm.com/us/product/62578?article=62578-C'
p1128
aS'http://www.hm.com/us/product/65677?article=65677-A'
p1129
aS'http://www.hm.com/us/product/64788?article=64788-B'
p1130
aS'http://www.hm.com/us/product/58593?article=58593-B'
p1131
aS'http://www.hm.com/us/product/68098?article=68098-B'
p1132
aS'http://www.hm.com/us/product/65316?article=65316-A'
p1133
aS'http://www.hm.com/us/product/67208?article=67208-E'
p1134
aS'http://www.hm.com/us/product/69097?article=69097-A'
p1135
aS'http://www.hm.com/us/product/37627?article=37627-E'
p1136
aS'http://www.hm.com/us/product/37359?article=37359-M'
p1137
aS'http://www.hm.com/us/product/63033?article=63033-A'
p1138
aS'http://www.hm.com/us/product/49487?article=49487-B'
p1139
aS'http://www.hm.com/us/product/53284?article=53284-A'
p1140
aS'http://www.hm.com/us/product/50661?article=50661-P'
p1141
aS'http://www.hm.com/us/product/69356?article=69356-B'
p1142
aS'http://www.hm.com/us/product/48659?article=48659-D'
p1143
aS'http://www.hm.com/us/product/63172?article=63172-R'
p1144
aS'http://www.hm.com/us/product/67236?article=67236-B'
p1145
aS'http://www.hm.com/us/product/67567?article=67567-C'
p1146
aS'http://www.hm.com/us/product/63589?article=63589-B'
p1147
aS'http://www.hm.com/us/product/64073?article=64073-F'
p1148
aS'http://www.hm.com/us/product/62537?article=62537-A'
p1149
aS'http://www.hm.com/us/product/66238?article=66238-A'
p1150
aS'http://www.hm.com/us/product/64672?article=64672-A'
p1151
aS'http://www.hm.com/us/product/61686?article=61686-H'
p1152
aS'http://www.hm.com/us/product/68836?article=68836-E'
p1153
aS'http://www.hm.com/us/product/62141?article=62141-A'
p1154
aS'http://www.hm.com/us/product/63105?article=63105-A'
p1155
aS'http://www.hm.com/us/product/63172?article=63172-D'
p1156
aS'http://www.hm.com/us/product/88239?article=88239-C'
p1157
aS'http://www.hm.com/us/product/66477?article=66477-B'
p1158
aS'http://www.hm.com/us/product/67105?article=67105-A'
p1159
aS'http://www.hm.com/us/product/65052?article=65052-A'
p1160
aS'http://www.hm.com/us/product/57954?article=57954-D'
p1161
aS'http://www.hm.com/us/product/68346?article=68346-B'
p1162
aS'http://www.hm.com/us/product/53186?article=53186-G'
p1163
aS'http://www.hm.com/us/product/67567?article=67567-B'
p1164
aS'http://www.hm.com/us/product/67606?article=67606-B'
p1165
aS'http://www.hm.com/us/product/61722?article=61722-N'
p1166
aS'http://www.hm.com/us/product/69780?article=69780-A'
p1167
aS'http://www.hm.com/us/product/44071?article=44071-D'
p1168
aS'http://www.hm.com/us/product/61156?article=61156-C'
p1169
aS'http://www.hm.com/us/product/44132?article=44132-N'
p1170
aS'http://www.hm.com/us/product/69435?article=69435-B'
p1171
aS'http://www.hm.com/us/product/65402?article=65402-D'
p1172
aS'http://www.hm.com/us/product/67677?article=67677-A'
p1173
aS'http://www.hm.com/us/product/64953?article=64953-D'
p1174
aS'http://www.hm.com/us/product/61933?article=61933-B'
p1175
aS'http://www.hm.com/us/product/67920?article=67920-B'
p1176
aS'http://www.hm.com/us/product/63663?article=63663-B'
p1177
aS'http://www.hm.com/us/product/67817?article=67817-A'
p1178
aS'http://www.hm.com/us/product/62698?article=62698-D'
p1179
aS'http://www.hm.com/us/product/63783?article=63783-E'
p1180
aS'http://www.hm.com/us/product/59632?article=59632-A'
p1181
aS'http://www.hm.com/us/product/69029?article=69029-A'
p1182
aS'http://www.hm.com/us/product/47087?article=47087-R'
p1183
aS'http://www.hm.com/us/product/63739?article=63739-C'
p1184
aS'http://www.hm.com/us/product/65567?article=65567-A'
p1185
aS'http://www.hm.com/us/product/47273?article=47273-N'
p1186
aS'http://www.hm.com/us/product/62479?article=62479-A'
p1187
aS'http://www.hm.com/us/product/64904?article=64904-B'
p1188
aS'http://www.hm.com/us/product/68749?article=68749-A'
p1189
aS'http://www.hm.com/us/product/57199?article=57199-A'
p1190
aS'http://www.hm.com/us/product/66033?article=66033-B'
p1191
aS'http://www.hm.com/us/product/60666?article=60666-A'
p1192
aS'http://www.hm.com/us/product/65476?article=65476-A'
p1193
aS'http://www.hm.com/us/product/63978?article=63978-C'
p1194
aS'http://www.hm.com/us/product/69435?article=69435-C'
p1195
aS'http://www.hm.com/us/product/63512?article=63512-A'
p1196
aS'http://www.hm.com/us/product/64281?article=64281-H'
p1197
aS'http://www.hm.com/us/product/62756?article=62756-A'
p1198
aS'http://www.hm.com/us/product/36678?article=36678-D'
p1199
aS'http://www.hm.com/us/product/66297?article=66297-B'
p1200
aS'http://www.hm.com/us/product/66200?article=66200-F'
p1201
aS'http://www.hm.com/us/product/65208?article=65208-A'
p1202
aS'http://www.hm.com/us/product/71044?article=71044-B'
p1203
aS'http://www.hm.com/us/product/70353?article=70353-B'
p1204
aS'http://www.hm.com/us/product/70161?article=70161-A'
p1205
aS'http://www.hm.com/us/product/63958?article=63958-A'
p1206
aS'http://www.hm.com/us/product/61723?article=61723-B'
p1207
aS'http://www.hm.com/us/product/65191?article=65191-B'
p1208
aS'http://www.hm.com/us/product/58038?article=58038-A'
p1209
aS'http://www.hm.com/us/product/63686?article=63686-A'
p1210
aS'http://www.hm.com/us/product/23584?article=23584-Q'
p1211
aS'http://www.hm.com/us/product/43661?article=43661-F'
p1212
aS'http://www.hm.com/us/product/65832?article=65832-C'
p1213
aS'http://www.hm.com/us/product/70944?article=70944-B'
p1214
aS'http://www.hm.com/us/product/42046?article=42046-D'
p1215
aS'http://www.hm.com/us/product/63579?article=63579-B'
p1216
aS'http://www.hm.com/us/product/63579?article=63579-A'
p1217
aS'http://www.hm.com/us/product/64476?article=64476-A'
p1218
aS'http://www.hm.com/us/product/69356?article=69356-A'
p1219
aS'http://www.hm.com/us/product/68525?article=68525-A'
p1220
aS'http://www.hm.com/us/product/67224?article=67224-A'
p1221
aS'http://www.hm.com/us/product/65567?article=65567-B'
p1222
aS'http://www.hm.com/us/product/67540?article=67540-A'
p1223
aS'http://www.hm.com/us/product/65208?article=65208-D'
p1224
aS'http://www.hm.com/us/product/65761?article=65761-A'
p1225
aS'http://www.hm.com/us/product/67793?article=67793-E'
p1226
aS'http://www.hm.com/us/product/67074?article=67074-C'
p1227
aS'http://www.hm.com/us/product/59821?article=59821-A'
p1228
aS'http://www.hm.com/us/product/65246?article=65246-B'
p1229
aS'http://www.hm.com/us/product/69549?article=69549-A'
p1230
aS'http://www.hm.com/us/product/59667?article=59667-E'
p1231
aS'http://www.hm.com/us/product/66591?article=66591-A'
p1232
aS'http://www.hm.com/us/product/67130?article=67130-C'
p1233
aS'http://www.hm.com/us/product/66012?article=66012-A'
p1234
aS'http://www.hm.com/us/product/68047?article=68047-A'
p1235
aS'http://www.hm.com/us/product/68997?article=68997-B'
p1236
aS'http://www.hm.com/us/product/60756?article=60756-A'
p1237
aS'http://www.hm.com/us/product/65088?article=65088-C'
p1238
aS'http://www.hm.com/us/product/63589?article=63589-C'
p1239
aS'http://www.hm.com/us/product/61560?article=61560-C'
p1240
aS'http://www.hm.com/us/product/64110?article=64110-C'
p1241
aS'http://www.hm.com/us/product/48972?article=48972-B'
p1242
aS'http://www.hm.com/us/product/65815?article=65815-C'
p1243
aS'http://www.hm.com/us/product/59212?article=59212-B'
p1244
aS'http://www.hm.com/us/product/65520?article=65520-A'
p1245
aS'http://www.hm.com/us/product/66817?article=66817-A'
p1246
aS'http://www.hm.com/us/product/61943?article=61943-A'
p1247
aS'http://www.hm.com/us/product/61918?article=61918-C'
p1248
aS'http://www.hm.com/us/product/62698?article=62698-C'
p1249
aS'http://www.hm.com/us/product/68100?article=68100-D'
p1250
aS'http://www.hm.com/us/product/68348?article=68348-A'
p1251
aS'http://www.hm.com/us/product/67428?article=67428-A'
p1252
aS'http://www.hm.com/us/product/61954?article=61954-C'
p1253
aS'http://www.hm.com/us/product/61478?article=61478-I'
p1254
aS'http://www.hm.com/us/product/65955?article=65955-A'
p1255
aS'http://www.hm.com/us/product/61722?article=61722-P'
p1256
aS'http://www.hm.com/us/product/38810?article=38810-F'
p1257
aS'http://www.hm.com/us/product/54356?article=54356-B'
p1258
aS'http://www.hm.com/us/product/64847?article=64847-A'
p1259
aS'http://www.hm.com/us/product/01614?article=01614-F'
p1260
aS'http://www.hm.com/us/product/63947?article=63947-B'
p1261
aS'http://www.hm.com/us/product/63589?article=63589-A'
p1262
aS'http://www.hm.com/us/product/61002?article=61002-D'
p1263
aS'http://www.hm.com/us/product/66037?article=66037-A'
p1264
aS'http://www.hm.com/us/product/67130?article=67130-B'
p1265
aS'http://www.hm.com/us/product/65800?article=65800-A'
p1266
aS'http://www.hm.com/us/product/61985?article=61985-A'
p1267
aS'http://www.hm.com/us/product/53051?article=53051-F'
p1268
aS'http://www.hm.com/us/product/43305?article=43305-Y'
p1269
aS'http://www.hm.com/us/product/67923?article=67923-B'
p1270
aS'http://www.hm.com/us/product/62077?article=62077-A'
p1271
aS'http://www.hm.com/us/product/64140?article=64140-D'
p1272
aS'http://www.hm.com/us/product/37359?article=37359-X'
p1273
aS'http://www.hm.com/us/product/47422?article=47422-D'
p1274
aS'http://www.hm.com/us/product/67777?article=67777-D'
p1275
aS'http://www.hm.com/us/product/62644?article=62644-C'
p1276
aS'http://www.hm.com/us/product/68410?article=68410-A'
p1277
aS'http://www.hm.com/us/product/61697?article=61697-E'
p1278
aS'http://www.hm.com/us/product/65520?article=65520-B'
p1279
aS'http://www.hm.com/us/product/69164?article=69164-A'
p1280
aS'http://www.hm.com/us/product/59828?article=59828-A'
p1281
aS'http://www.hm.com/us/product/60180?article=60180-E'
p1282
aS'http://www.hm.com/us/product/01614?article=01614-D'
p1283
aS'http://www.hm.com/us/product/61793?article=61793-A'
p1284
aS'http://www.hm.com/us/product/64573?article=64573-F'
p1285
aS'http://www.hm.com/us/product/65983?article=65983-A'
p1286
aS'http://www.hm.com/us/product/65083?article=65083-A'
p1287
aS'http://www.hm.com/us/product/61793?article=61793-C'
p1288
aS'http://www.hm.com/us/product/70373?article=70373-B'
p1289
aS'http://www.hm.com/us/product/64734?article=64734-A'
p1290
aS'http://www.hm.com/us/product/69667?article=69667-A'
p1291
aS'http://www.hm.com/us/product/63154?article=63154-B'
p1292
aS'http://www.hm.com/us/product/63624?article=63624-A'
p1293
aS'http://www.hm.com/us/product/66126?article=66126-B'
p1294
aS'http://www.hm.com/us/product/67256?article=67256-B'
p1295
aS'http://www.hm.com/us/product/65010?article=65010-A'
p1296
aS'http://www.hm.com/us/product/64657?article=64657-A'
p1297
aS'http://www.hm.com/us/product/65280?article=65280-A'
p1298
aS'http://www.hm.com/us/product/60286?article=60286-A'
p1299
aS'http://www.hm.com/us/product/65144?article=65144-A'
p1300
aS'http://www.hm.com/us/product/66297?article=66297-C'
p1301
aS'http://www.hm.com/us/product/67923?article=67923-C'
p1302
aS'http://www.hm.com/us/product/65953?article=65953-A'
p1303
aS'http://www.hm.com/us/product/68200?article=68200-A'
p1304
aS'http://www.hm.com/us/product/59828?article=59828-I'
p1305
aS'http://www.hm.com/us/product/62756?article=62756-B'
p1306
aS'http://www.hm.com/us/product/49470?article=49470-I'
p1307
aS'http://www.hm.com/us/product/63685?article=63685-C'
p1308
aS'http://www.hm.com/us/product/59586?article=59586-B'
p1309
aS'http://www.hm.com/us/product/59820?article=59820-B'
p1310
aS'http://www.hm.com/us/product/64393?article=64393-B'
p1311
aS'http://www.hm.com/us/product/36678?article=36678-S'
p1312
aS'http://www.hm.com/us/product/62588?article=62588-A'
p1313
aS'http://www.hm.com/us/product/64922?article=64922-B'
p1314
aS'http://www.hm.com/us/product/62025?article=62025-A'
p1315
aS'http://www.hm.com/us/product/66985?article=66985-D'
p1316
aS'http://www.hm.com/us/product/54563?article=54563-B'
p1317
aS'http://www.hm.com/us/product/63755?article=63755-F'
p1318
aS'http://www.hm.com/us/product/63685?article=63685-A'
p1319
aS'http://www.hm.com/us/product/63878?article=63878-A'
p1320
aS'http://www.hm.com/us/product/63878?article=63878-A'
p1321
aS'http://www.hm.com/us/product/68543?article=68543-B'
p1322
aS'http://www.hm.com/us/product/53186?article=53186-J'
p1323
aS'http://www.hm.com/us/product/65517?article=65517-B'
p1324
aS'http://www.hm.com/us/product/53159?article=53159-B'
p1325
aS'http://www.hm.com/us/product/65981?article=65981-C'
p1326
aS'http://www.hm.com/us/product/69071?article=69071-A'
p1327
aS'http://www.hm.com/us/product/65696?article=65696-B'
p1328
aS'http://www.hm.com/us/product/66478?article=66478-A'
p1329
aS'http://www.hm.com/us/product/64802?article=64802-A'
p1330
aS'http://www.hm.com/us/product/60532?article=60532-A'
p1331
aS'http://www.hm.com/us/product/65014?article=65014-A'
p1332
aS'http://www.hm.com/us/product/68973?article=68973-A'
p1333
aS'http://www.hm.com/us/product/68460?article=68460-C'
p1334
aS'http://www.hm.com/us/product/67184?article=67184-A'
p1335
aS'http://www.hm.com/us/product/65696?article=65696-A'
p1336
aS'http://www.hm.com/us/product/66030?article=66030-A'
p1337
aS'http://www.hm.com/us/product/65947?article=65947-A'
p1338
aS'http://www.hm.com/us/product/66800?article=66800-A'
p1339
aS'http://www.hm.com/us/product/67674?article=67674-D'
p1340
aS'http://www.hm.com/us/product/67243?article=67243-A'
p1341
aS'http://www.hm.com/us/product/66301?article=66301-C'
p1342
aS'http://www.hm.com/us/product/65637?article=65637-A'
p1343
aS'http://www.hm.com/us/product/65028?article=65028-C'
p1344
aS'http://www.hm.com/us/product/61894?article=61894-A'
p1345
aS'http://www.hm.com/us/product/65240?article=65240-B'
p1346
aS'http://www.hm.com/us/product/59449?article=59449-B'
p1347
aS'http://www.hm.com/us/product/61467?article=61467-A'
p1348
aS'http://www.hm.com/us/product/62766?article=62766-B'
p1349
aS'http://www.hm.com/us/product/69603?article=69603-B'
p1350
aS'http://www.hm.com/us/product/65815?article=65815-F'
p1351
aS'http://www.hm.com/us/product/64170?article=64170-A'
p1352
aS'http://www.hm.com/us/product/61155?article=61155-A'
p1353
aS'http://www.hm.com/us/product/59820?article=59820-A'
p1354
aS'http://www.hm.com/us/product/83904?article=83904-M'
p1355
aS'http://www.hm.com/us/product/65333?article=65333-B'
p1356
aS'http://www.hm.com/us/product/64848?article=64848-C'
p1357
aS'http://www.hm.com/us/product/67274?article=67274-A'
p1358
aS'http://www.hm.com/us/product/55134?article=55134-C'
p1359
aS'http://www.hm.com/us/product/66085?article=66085-A'
p1360
aS'http://www.hm.com/us/product/63431?article=63431-D'
p1361
aS'http://www.hm.com/us/product/65544?article=65544-A'
p1362
aS'http://www.hm.com/us/product/45856?article=45856-A'
p1363
aS'http://www.hm.com/us/product/67923?article=67923-A'
p1364
aS'http://www.hm.com/us/product/62766?article=62766-C'
p1365
aS'http://www.hm.com/us/product/61836?article=61836-G'
p1366
aS'http://www.hm.com/us/product/64587?article=64587-C'
p1367
aS'http://www.hm.com/us/product/66926?article=66926-C'
p1368
aS'http://www.hm.com/us/product/66101?article=66101-D'
p1369
aS'http://www.hm.com/us/product/59663?article=59663-D'
p1370
aS'http://www.hm.com/us/product/41646?article=41646-M'
p1371
aS'http://www.hm.com/us/product/67302?article=67302-A'
p1372
aS'http://www.hm.com/us/product/68881?article=68881-D'
p1373
aS'http://www.hm.com/us/product/56422?article=56422-F'
p1374
aS'http://www.hm.com/us/product/68139?article=68139-A'
p1375
aS'http://www.hm.com/us/product/66477?article=66477-A'
p1376
aS'http://www.hm.com/us/product/65941?article=65941-A'
p1377
aS'http://www.hm.com/us/product/64795?article=64795-H'
p1378
aS'http://www.hm.com/us/product/71049?article=71049-C'
p1379
aS'http://www.hm.com/us/product/68277?article=68277-B'
p1380
aS'http://www.hm.com/us/product/64273?article=64273-A'
p1381
aS'http://www.hm.com/us/product/62617?article=62617-A'
p1382
aS'http://www.hm.com/us/product/68335?article=68335-A'
p1383
aS'http://www.hm.com/us/product/47453?article=47453-C'
p1384
aS'http://www.hm.com/us/product/65164?article=65164-A'
p1385
aS'http://www.hm.com/us/product/44971?article=44971-C'
p1386
aS'http://www.hm.com/us/product/63012?article=63012-B'
p1387
aS'http://www.hm.com/us/product/59632?article=59632-B'
p1388
aS'http://www.hm.com/us/product/65266?article=65266-A'
p1389
aS'http://www.hm.com/us/product/20802?article=20802-G'
p1390
aS'http://www.hm.com/us/product/58327?article=58327-D'
p1391
aS'http://www.hm.com/us/product/63852?article=63852-A'
p1392
aS'http://www.hm.com/us/product/63482?article=63482-B'
p1393
aS'http://www.hm.com/us/product/62479?article=62479-B'
p1394
aS'http://www.hm.com/us/product/69493?article=69493-C'
p1395
aS'http://www.hm.com/us/product/67159?article=67159-A'
p1396
aS'http://www.hm.com/us/product/49274?article=49274-C'
p1397
aS'http://www.hm.com/us/product/60739?article=60739-C'
p1398
aS'http://www.hm.com/us/product/66502?article=66502-A'
p1399
aS'http://www.hm.com/us/product/67208?article=67208-A'
p1400
aS'http://www.hm.com/us/product/63783?article=63783-D'
p1401
aS'http://www.hm.com/us/product/67074?article=67074-A'
p1402
aS'http://www.hm.com/us/product/38008?article=38008-C'
p1403
aS'http://www.hm.com/us/product/69490?article=69490-A'
p1404
aS'http://www.hm.com/us/product/64493?article=64493-E'
p1405
aS'http://www.hm.com/us/product/60006?article=60006-A'
p1406
aS'http://www.hm.com/us/product/59445?article=59445-C'
p1407
aS'http://www.hm.com/us/product/45723?article=45723-C'
p1408
aS'http://www.hm.com/us/product/67825?article=67825-B'
p1409
aS'http://www.hm.com/us/product/61467?article=61467-K'
p1410
aS'http://www.hm.com/us/product/65208?article=65208-C'
p1411
aS'http://www.hm.com/us/product/66234?article=66234-A'
p1412
aS'http://www.hm.com/us/product/64795?article=64795-J'
p1413
aS'http://www.hm.com/us/product/61720?article=61720-A'
p1414
aS'http://www.hm.com/us/product/67707?article=67707-A'
p1415
aS'http://www.hm.com/us/product/60244?article=60244-B'
p1416
aS'http://www.hm.com/us/product/69031?article=69031-A'
p1417
aS'http://www.hm.com/us/product/62719?article=62719-A'
p1418
aS'http://www.hm.com/us/product/88239?article=88239-H'
p1419
aS'http://www.hm.com/us/product/64797?article=64797-D'
p1420
aS'http://www.hm.com/us/product/14757?article=14757-A'
p1421
aS'http://www.hm.com/us/product/52166?article=52166-H'
p1422
aS'http://www.hm.com/us/product/66985?article=66985-E'
p1423
aS'http://www.hm.com/us/product/68820?article=68820-A'
p1424
aS'http://www.hm.com/us/product/53890?article=53890-E'
p1425
aS'http://www.hm.com/us/product/62541?article=62541-A'
p1426
aS'http://www.hm.com/us/product/88239?article=88239-D'
p1427
aS'http://www.hm.com/us/product/63216?article=63216-A'
p1428
aS'http://www.hm.com/us/product/60631?article=60631-D'
p1429
aS'http://www.hm.com/us/product/69957?article=69957-A'
p1430
aS'http://www.hm.com/us/product/41818?article=41818-B'
p1431
aS'http://www.hm.com/us/product/58011?article=58011-D'
p1432
aS'http://www.hm.com/us/product/67566?article=67566-A'
p1433
aS'http://www.hm.com/us/product/60262?article=60262-D'
p1434
aS'http://www.hm.com/us/product/66932?article=66932-F'
p1435
aS'http://www.hm.com/us/product/68836?article=68836-A'
p1436
aS'http://www.hm.com/us/product/62355?article=62355-E'
p1437
aS'http://www.hm.com/us/product/64138?article=64138-A'
p1438
aS'http://www.hm.com/us/product/64468?article=64468-B'
p1439
aS'http://www.hm.com/us/product/59820?article=59820-C'
p1440
aS'http://www.hm.com/us/product/66359?article=66359-A'
p1441
aS'http://www.hm.com/us/product/67445?article=67445-C'
p1442
aS'http://www.hm.com/us/product/64993?article=64993-B'
p1443
aS'http://www.hm.com/us/product/62082?article=62082-A'
p1444
aS'http://www.hm.com/us/product/58649?article=58649-A'
p1445
aS'http://www.hm.com/us/product/57266?article=57266-A'
p1446
aS'http://www.hm.com/us/product/66649?article=66649-A'
p1447
aS'http://www.hm.com/us/product/64848?article=64848-A'
p1448
aS'http://www.hm.com/us/product/49712?article=49712-V'
p1449
aS'http://www.hm.com/us/product/63615?article=63615-A'
p1450
aS'http://www.hm.com/us/product/63226?article=63226-A'
p1451
aS'http://www.hm.com/us/product/38269?article=38269-P'
p1452
aS'http://www.hm.com/us/product/29143?article=29143-V'
p1453
aS'http://www.hm.com/us/product/69438?article=69438-B'
p1454
aS'http://www.hm.com/us/product/61267?article=61267-B'
p1455
aS'http://www.hm.com/us/product/67504?article=67504-A'
p1456
aS'http://www.hm.com/us/product/68784?article=68784-A'
p1457
aS'http://www.hm.com/us/product/64327?article=64327-C'
p1458
aS'http://www.hm.com/us/product/69665?article=69665-A'
p1459
aS'http://www.hm.com/us/product/64335?article=64335-A'
p1460
aS'http://www.hm.com/us/product/66945?article=66945-A'
p1461
aS'http://www.hm.com/us/product/66982?article=66982-A'
p1462
aS'http://www.hm.com/us/product/58711?article=58711-A'
p1463
aS'http://www.hm.com/us/product/66505?article=66505-A'
p1464
aS'http://www.hm.com/us/product/47450?article=47450-B'
p1465
aS'http://www.hm.com/us/product/61291?article=61291-A'
p1466
aS'http://www.hm.com/us/product/67340?article=67340-C'
p1467
aS'http://www.hm.com/us/product/53341?article=53341-C'
p1468
aS'http://www.hm.com/us/product/64498?article=64498-A'
p1469
aS'http://www.hm.com/us/product/70817?article=70817-A'
p1470
aS'http://www.hm.com/us/product/50074?article=50074-A'
p1471
aS'http://www.hm.com/us/product/68013?article=68013-C'
p1472
aS'http://www.hm.com/us/product/67222?article=67222-B'
p1473
aS'http://www.hm.com/us/product/56239?article=56239-A'
p1474
aS'http://www.hm.com/us/product/65504?article=65504-A'
p1475
aS'http://www.hm.com/us/product/66285?article=66285-A'
p1476
aS'http://www.hm.com/us/product/47422?article=47422-E'
p1477
aS'http://www.hm.com/us/product/63172?article=63172-L'
p1478
aS'http://www.hm.com/us/product/64075?article=64075-B'
p1479
aS'http://www.hm.com/us/product/64327?article=64327-A'
p1480
aS'http://www.hm.com/us/product/60111?article=60111-D'
p1481
aS'http://www.hm.com/us/product/65456?article=65456-D'
p1482
aS'http://www.hm.com/us/product/64953?article=64953-B'
p1483
aS'http://www.hm.com/us/product/68460?article=68460-A'
p1484
aS'http://www.hm.com/us/product/67741?article=67741-A'
p1485
aS'http://www.hm.com/us/product/46615?article=46615-A'
p1486
aS'http://www.hm.com/us/product/64361?article=64361-B'
p1487
aS'http://www.hm.com/us/product/68335?article=68335-C'
p1488
aS'http://www.hm.com/us/product/62756?article=62756-C'
p1489
aS'http://www.hm.com/us/product/63988?article=63988-B'
p1490
aS'http://www.hm.com/us/product/68842?article=68842-A'
p1491
aS'http://www.hm.com/us/product/67633?article=67633-A'
p1492
aS'http://www.hm.com/us/product/65843?article=65843-D'
p1493
aS'http://www.hm.com/us/product/49485?article=49485-A'
p1494
aS'http://www.hm.com/us/product/62355?article=62355-G'
p1495
aS'http://www.hm.com/us/product/69438?article=69438-D'
p1496
aS'http://www.hm.com/us/product/59195?article=59195-A'
p1497
aS'http://www.hm.com/us/product/66234?article=66234-G'
p1498
aS'http://www.hm.com/us/product/07560?article=07560-T'
p1499
aS'http://www.hm.com/us/product/65240?article=65240-A'
p1500
aS'http://www.hm.com/us/product/62556?article=62556-E'
p1501
aS'http://www.hm.com/us/product/67700?article=67700-A'
p1502
aS'http://www.hm.com/us/product/68770?article=68770-E'
p1503
aS'http://www.hm.com/us/product/70694?article=70694-A'
p1504
aS'http://www.hm.com/us/product/66313?article=66313-B'
p1505
aS'http://www.hm.com/us/product/64286?article=64286-B'
p1506
aS'http://www.hm.com/us/product/64361?article=64361-A'
p1507
aS'http://www.hm.com/us/product/63482?article=63482-A'
p1508
aS'http://www.hm.com/us/product/84044?article=84044-C'
p1509
aS'http://www.hm.com/us/product/69388?article=69388-A'
p1510
aS'http://www.hm.com/us/product/07560?article=07560-V'
p1511
aS'http://www.hm.com/us/product/67445?article=67445-D'
p1512
aS'http://www.hm.com/us/product/61935?article=61935-B'
p1513
aS'http://www.hm.com/us/product/62037?article=62037-B'
p1514
aS'http://www.hm.com/us/product/70864?article=70864-A'
p1515
aS'http://www.hm.com/us/product/66592?article=66592-A'
p1516
aS'http://www.hm.com/us/product/65529?article=65529-C'
p1517
aS'http://www.hm.com/us/product/61996?article=61996-M'
p1518
aS'http://www.hm.com/us/product/66440?article=66440-A'
p1519
aS'http://www.hm.com/us/product/66234?article=66234-F'
p1520
aS'http://www.hm.com/us/product/63568?article=63568-A'
p1521
aS'http://www.hm.com/us/product/65826?article=65826-A'
p1522
aS'http://www.hm.com/us/product/77577?article=77577-D'
p1523
aS'http://www.hm.com/us/product/47460?article=47460-B'
p1524
aS'http://www.hm.com/us/product/67794?article=67794-A'
p1525
aS'http://www.hm.com/us/product/68770?article=68770-A'
p1526
aS'http://www.hm.com/us/product/61307?article=61307-B'
p1527
aS'http://www.hm.com/us/product/66533?article=66533-A'
p1528
aS'http://www.hm.com/us/product/63012?article=63012-D'
p1529
aS'http://www.hm.com/us/product/58011?article=58011-A'
p1530
aS'http://www.hm.com/us/product/37088?article=37088-J'
p1531
aS'http://www.hm.com/us/product/69475?article=69475-A'
p1532
aS'http://www.hm.com/us/product/65529?article=65529-B'
p1533
aS'http://www.hm.com/us/product/65191?article=65191-C'
p1534
aS'http://www.hm.com/us/product/65826?article=65826-B'
p1535
aS'http://www.hm.com/us/product/62739?article=62739-B'
p1536
aS'http://www.hm.com/us/product/66004?article=66004-A'
p1537
aS'http://www.hm.com/us/product/60310?article=60310-B'
p1538
aS'http://www.hm.com/us/product/37627?article=37627-D'
p1539
aS'http://www.hm.com/us/product/64806?article=64806-J'
p1540
aS'http://www.hm.com/us/product/60970?article=60970-B'
p1541
aS'http://www.hm.com/us/product/58593?article=58593-F'
p1542
aS'http://www.hm.com/us/product/62617?article=62617-B'
p1543
aS'http://www.hm.com/us/product/61953?article=61953-A'
p1544
aS'http://www.hm.com/us/product/59659?article=59659-F'
p1545
aS'http://www.hm.com/us/product/63796?article=63796-A'
p1546
aS'http://www.hm.com/us/product/66123?article=66123-C'
p1547
aS'http://www.hm.com/us/product/66906?article=66906-A'
p1548
aS'http://www.hm.com/us/product/60048?article=60048-B'
p1549
aS'http://www.hm.com/us/product/61945?article=61945-B'
p1550
aS'http://www.hm.com/us/product/64724?article=64724-A'
p1551
aS'http://www.hm.com/us/product/64073?article=64073-C'
p1552
aS'http://www.hm.com/us/product/67489?article=67489-C'
p1553
aS'http://www.hm.com/us/product/65313?article=65313-A'
p1554
aS'http://www.hm.com/us/product/67554?article=67554-B'
p1555
aS'http://www.hm.com/us/product/66200?article=66200-D'
p1556
aS'http://www.hm.com/us/product/34583?article=34583-D'
p1557
aS'http://www.hm.com/us/product/66323?article=66323-A'
p1558
aS'http://www.hm.com/us/product/62739?article=62739-C'
p1559
aS'http://www.hm.com/us/product/64802?article=64802-B'
p1560
aS'http://www.hm.com/us/product/58011?article=58011-B'
p1561
aS'http://www.hm.com/us/product/63845?article=63845-B'
p1562
aS'http://www.hm.com/us/product/63639?article=63639-A'
p1563
aS'http://www.hm.com/us/product/66940?article=66940-A'
p1564
aS'http://www.hm.com/us/product/68898?article=68898-A'
p1565
aS'http://www.hm.com/us/product/70040?article=70040-A'
p1566
aS'http://www.hm.com/us/product/63149?article=63149-F'
p1567
aS'http://www.hm.com/us/product/66157?article=66157-A'
p1568
aS'http://www.hm.com/us/product/66735?article=66735-A'
p1569
aS'http://www.hm.com/us/product/70673?article=70673-A'
p1570
aS'http://www.hm.com/us/product/69493?article=69493-B'
p1571
aS'http://www.hm.com/us/product/66012?article=66012-B'
p1572
aS'http://www.hm.com/us/product/65975?article=65975-D'
p1573
aS'http://www.hm.com/us/product/61996?article=61996-K'
p1574
aS'http://www.hm.com/us/product/61696?article=61696-A'
p1575
aS'http://www.hm.com/us/product/67499?article=67499-A'
p1576
aS'http://www.hm.com/us/product/00832?article=00832-S'
p1577
aS'http://www.hm.com/us/product/59828?article=59828-F'
p1578
aS'http://www.hm.com/us/product/61686?article=61686-A'
p1579
aS'http://www.hm.com/us/product/62161?article=62161-B'
p1580
aS'http://www.hm.com/us/product/69716?article=69716-A'
p1581
aS'http://www.hm.com/us/product/62220?article=62220-D'
p1582
aS'http://www.hm.com/us/product/59143?article=59143-B'
p1583
aS'http://www.hm.com/us/product/64975?article=64975-D'
p1584
aS'http://www.hm.com/us/product/67354?article=67354-A'
p1585
aS'http://www.hm.com/us/product/63574?article=63574-A'
p1586
aS'http://www.hm.com/us/product/65254?article=65254-A'
p1587
aS'http://www.hm.com/us/product/68066?article=68066-B'
p1588
aS'http://www.hm.com/us/product/64892?article=64892-D'
p1589
aS'http://www.hm.com/us/product/64724?article=64724-B'
p1590
aS'http://www.hm.com/us/product/66933?article=66933-A'
p1591
aS'http://www.hm.com/us/product/65265?article=65265-A'
p1592
aS'http://www.hm.com/us/product/66022?article=66022-A'
p1593
aS'http://www.hm.com/us/product/68881?article=68881-A'
p1594
aS'http://www.hm.com/us/product/65214?article=65214-A'
p1595
aS'http://www.hm.com/us/product/44071?article=44071-E'
p1596
aS'http://www.hm.com/us/product/63657?article=63657-C'
p1597
aS'http://www.hm.com/us/product/64958?article=64958-A'
p1598
aS'http://www.hm.com/us/product/59510?article=59510-C'
p1599
aS'http://www.hm.com/us/product/66970?article=66970-B'
p1600
aS'http://www.hm.com/us/product/59347?article=59347-E'
p1601
aS'http://www.hm.com/us/product/57941?article=57941-B'
p1602
aS'http://www.hm.com/us/product/64286?article=64286-F'
p1603
aS'http://www.hm.com/us/product/56453?article=56453-B'
p1604
aS'http://www.hm.com/us/product/64816?article=64816-B'
p1605
aS'http://www.hm.com/us/product/69985?article=69985-A'
p1606
aS'http://www.hm.com/us/product/60974?article=60974-A'
p1607
aS'http://www.hm.com/us/product/60688?article=60688-B'
p1608
aS'http://www.hm.com/us/product/67629?article=67629-A'
p1609
aS'http://www.hm.com/us/product/65782?article=65782-B'
p1610
aS'http://www.hm.com/us/product/68881?article=68881-C'
p1611
aS'http://www.hm.com/us/product/68770?article=68770-B'
p1612
aS'http://www.hm.com/us/product/60768?article=60768-F'
p1613
aS'http://www.hm.com/us/product/66933?article=66933-B'
p1614
aS'http://www.hm.com/us/product/68027?article=68027-A'
p1615
aS'http://www.hm.com/us/product/38806?article=38806-D'
p1616
aS'http://www.hm.com/us/product/69782?article=69782-A'
p1617
aS'http://www.hm.com/us/product/70846?article=70846-C'
p1618
aS'http://www.hm.com/us/product/67022?article=67022-A'
p1619
aS'http://www.hm.com/us/product/61832?article=61832-F'
p1620
aS'http://www.hm.com/us/product/64094?article=64094-A'
p1621
aS'http://www.hm.com/us/product/67208?article=67208-C'
p1622
aS'http://www.hm.com/us/product/56422?article=56422-E'
p1623
aS'http://www.hm.com/us/product/58489?article=58489-A'
p1624
aS'http://www.hm.com/us/product/60011?article=60011-A'
p1625
aS'http://www.hm.com/us/product/67028?article=67028-A'
p1626
aS'http://www.hm.com/us/product/63954?article=63954-D'
p1627
aS'http://www.hm.com/us/product/67154?article=67154-A'
p1628
aS'http://www.hm.com/us/product/59490?article=59490-E'
p1629
aS'http://www.hm.com/us/product/63978?article=63978-D'
p1630
aS'http://www.hm.com/us/product/62315?article=62315-A'
p1631
aS'http://www.hm.com/us/product/68815?article=68815-A'
p1632
aS'http://www.hm.com/us/product/64007?article=64007-B'
p1633
aS'http://www.hm.com/us/product/70505?article=70505-C'
p1634
aS'http://www.hm.com/us/product/32638?article=32638-D'
p1635
aS'http://www.hm.com/us/product/61918?article=61918-D'
p1636
aS'http://www.hm.com/us/product/51782?article=51782-C'
p1637
aS'http://www.hm.com/us/product/77577?article=77577-Q'
p1638
aS'http://www.hm.com/us/product/65780?article=65780-A'
p1639
aS'http://www.hm.com/us/product/60048?article=60048-A'
p1640
aS'http://www.hm.com/us/product/67172?article=67172-A'
p1641
aS'http://www.hm.com/us/product/60218?article=60218-G'
p1642
aS'http://www.hm.com/us/product/70593?article=70593-A'
p1643
aS'http://www.hm.com/us/product/52166?article=52166-A'
p1644
aS'http://www.hm.com/us/product/37627?article=37627-F'
p1645
aS'http://www.hm.com/us/product/62001?article=62001-A'
p1646
aS'http://www.hm.com/us/product/61903?article=61903-B'
p1647
aS'http://www.hm.com/us/product/67590?article=67590-A'
p1648
aS'http://www.hm.com/us/product/64495?article=64495-C'
p1649
aS'http://www.hm.com/us/product/69581?article=69581-A'
p1650
aS'http://www.hm.com/us/product/62155?article=62155-A'
p1651
aS'http://www.hm.com/us/product/61546?article=61546-D'
p1652
aS'http://www.hm.com/us/product/66908?article=66908-B'
p1653
aS'http://www.hm.com/us/product/67853?article=67853-A'
p1654
aS'http://www.hm.com/us/product/68031?article=68031-B'
p1655
aS'http://www.hm.com/us/product/67849?article=67849-A'
p1656
aS'http://www.hm.com/us/product/65889?article=65889-A'
p1657
aS'http://www.hm.com/us/product/64860?article=64860-B'
p1658
aS'http://www.hm.com/us/product/60347?article=60347-A'
p1659
aS'http://www.hm.com/us/product/68336?article=68336-A'
p1660
aS'http://www.hm.com/us/product/61467?article=61467-B'
p1661
aS'http://www.hm.com/us/product/66101?article=66101-A'
p1662
aS'http://www.hm.com/us/product/66123?article=66123-A'
p1663
aS'http://www.hm.com/us/product/67401?article=67401-A'
p1664
aS'http://www.hm.com/us/product/65978?article=65978-C'
p1665
aS'http://www.hm.com/us/product/70846?article=70846-D'
p1666
aS'http://www.hm.com/us/product/68469?article=68469-A'
p1667
aS'http://www.hm.com/us/product/64986?article=64986-A'
p1668
aS'http://www.hm.com/us/product/65191?article=65191-A'
p1669
aS'http://www.hm.com/us/product/63172?article=63172-M'
p1670
aS'http://www.hm.com/us/product/64826?article=64826-A'
p1671
aS'http://www.hm.com/us/product/52833?article=52833-D'
p1672
aS'http://www.hm.com/us/product/44412?article=44412-G'
p1673
aS'http://www.hm.com/us/product/71162?article=71162-A'
p1674
aS'http://www.hm.com/us/product/64123?article=64123-A'
p1675
aS'http://www.hm.com/us/product/60108?article=60108-B'
p1676
aS'http://www.hm.com/us/product/63031?article=63031-A'
p1677
aS'http://www.hm.com/us/product/66916?article=66916-A'
p1678
aS'http://www.hm.com/us/product/35134?article=35134-E'
p1679
aS'http://www.hm.com/us/product/65768?article=65768-A'
p1680
aS'http://www.hm.com/us/product/65768?article=65768-A'
p1681
aS'http://www.hm.com/us/product/65383?article=65383-A'
p1682
aS'http://www.hm.com/us/product/63431?article=63431-C'
p1683
aS'http://www.hm.com/us/product/61747?article=61747-E'
p1684
aS'http://www.hm.com/us/product/67467?article=67467-C'
p1685
aS'http://www.hm.com/us/product/77577?article=77577-N'
p1686
aS'http://www.hm.com/us/product/65710?article=65710-D'
p1687
aS'http://www.hm.com/us/product/67304?article=67304-A'
p1688
aS'http://www.hm.com/us/product/64348?article=64348-D'
p1689
aS'http://www.hm.com/us/product/70144?article=70144-A'
p1690
aS'http://www.hm.com/us/product/64259?article=64259-A'
p1691
aS'http://www.hm.com/us/product/65027?article=65027-A'
p1692
aS'http://www.hm.com/us/product/58752?article=58752-A'
p1693
aS'http://www.hm.com/us/product/66200?article=66200-B'
p1694
aS'http://www.hm.com/us/product/63012?article=63012-H'
p1695
aS'http://www.hm.com/us/product/42804?article=42804-B'
p1696
aS'http://www.hm.com/us/product/68668?article=68668-A'
p1697
aS'http://www.hm.com/us/product/64860?article=64860-D'
p1698
aS'http://www.hm.com/us/product/68770?article=68770-D'
p1699
aS'http://www.hm.com/us/product/67192?article=67192-A'
p1700
aS'http://www.hm.com/us/product/60284?article=60284-H'
p1701
aS'http://www.hm.com/us/product/71162?article=71162-D'
p1702
aS'http://www.hm.com/us/product/58150?article=58150-D'
p1703
aS'http://www.hm.com/us/product/58150?article=58150-B'
p1704
aS'http://www.hm.com/us/product/69715?article=69715-A'
p1705
aS'http://www.hm.com/us/product/68097?article=68097-A'
p1706
aS'http://www.hm.com/us/product/49409?article=49409-F'
p1707
aS'http://www.hm.com/us/product/66196?article=66196-J'
p1708
aS'http://www.hm.com/us/product/61788?article=61788-A'
p1709
aS'http://www.hm.com/us/product/69475?article=69475-B'
p1710
aS'http://www.hm.com/us/product/59511?article=59511-A'
p1711
aS'http://www.hm.com/us/product/58630?article=58630-A'
p1712
aS'http://www.hm.com/us/product/61722?article=61722-J'
p1713
aS'http://www.hm.com/us/product/54027?article=54027-B'
p1714
aS'http://www.hm.com/us/product/66065?article=66065-B'
p1715
aS'http://www.hm.com/us/product/68013?article=68013-A'
p1716
aS'http://www.hm.com/us/product/68063?article=68063-B'
p1717
aS'http://www.hm.com/us/product/38460?article=38460-K'
p1718
aS'http://www.hm.com/us/product/60028?article=60028-A'
p1719
aS'http://www.hm.com/us/product/66594?article=66594-A'
p1720
aS'http://www.hm.com/us/product/61819?article=61819-A'
p1721
aS'http://www.hm.com/us/product/64407?article=64407-B'
p1722
aS'http://www.hm.com/us/product/66755?article=66755-C'
p1723
aS'http://www.hm.com/us/product/68007?article=68007-A'
p1724
aS'http://www.hm.com/us/product/70267?article=70267-B'
p1725
aS'http://www.hm.com/us/product/01635?article=01635-D'
p1726
aS'http://www.hm.com/us/product/59149?article=59149-B'
p1727
aS'http://www.hm.com/us/product/66014?article=66014-B'
p1728
aS'http://www.hm.com/us/product/70229?article=70229-B'
p1729
aS'http://www.hm.com/us/product/66196?article=66196-H'
p1730
aS'http://www.hm.com/us/product/65765?article=65765-C'
p1731
aS'http://www.hm.com/us/product/60075?article=60075-B'
p1732
aS'http://www.hm.com/us/product/60768?article=60768-H'
p1733
aS'http://www.hm.com/us/product/61942?article=61942-A'
p1734
aS'http://www.hm.com/us/product/64331?article=64331-A'
p1735
aS'http://www.hm.com/us/product/61797?article=61797-C'
p1736
aS'http://www.hm.com/us/product/66964?article=66964-A'
p1737
aS'http://www.hm.com/us/product/65649?article=65649-B'
p1738
aS'http://www.hm.com/us/product/62755?article=62755-B'
p1739
aS'http://www.hm.com/us/product/66268?article=66268-A'
p1740
aS'http://www.hm.com/us/product/65642?article=65642-A'
p1741
aS'http://www.hm.com/us/product/60075?article=60075-A'
p1742
aS'http://www.hm.com/us/product/64610?article=64610-B'
p1743
aS'http://www.hm.com/us/product/52061?article=52061-F'
p1744
aS'http://www.hm.com/us/product/66988?article=66988-A'
p1745
aS'http://www.hm.com/us/product/55119?article=55119-A'
p1746
aS'http://www.hm.com/us/product/60602?article=60602-B'
p1747
aS'http://www.hm.com/us/product/67456?article=67456-B'
p1748
aS'http://www.hm.com/us/product/89400?article=89400-T'
p1749
aS'http://www.hm.com/us/product/65785?article=65785-A'
p1750
aS'http://www.hm.com/us/product/60255?article=60255-A'
p1751
aS'http://www.hm.com/us/product/70281?article=70281-D'
p1752
aS'http://www.hm.com/us/product/65544?article=65544-B'
p1753
aS'http://www.hm.com/us/product/61686?article=61686-J'
p1754
aS'http://www.hm.com/us/product/61310?article=61310-B'
p1755
aS'http://www.hm.com/us/product/67273?article=67273-C'
p1756
aS'http://www.hm.com/us/product/49440?article=49440-B'
p1757
aS'http://www.hm.com/us/product/66455?article=66455-A'
p1758
aS'http://www.hm.com/us/product/65292?article=65292-A'
p1759
aS'http://www.hm.com/us/product/65751?article=65751-B'
p1760
aS'http://www.hm.com/us/product/64273?article=64273-C'
p1761
aS'http://www.hm.com/us/product/49853?article=49853-C'
p1762
aS'http://www.hm.com/us/product/63227?article=63227-B'
p1763
aS'http://www.hm.com/us/product/65452?article=65452-B'
p1764
aS'http://www.hm.com/us/product/63451?article=63451-B'
p1765
aS'http://www.hm.com/us/product/66196?article=66196-A'
p1766
aS'http://www.hm.com/us/product/62229?article=62229-C'
p1767
aS'http://www.hm.com/us/product/67880?article=67880-B'
p1768
aS'http://www.hm.com/us/product/66346?article=66346-A'
p1769
aS'http://www.hm.com/us/product/70817?article=70817-B'
p1770
aS'http://www.hm.com/us/product/63524?article=63524-B'
p1771
aS'http://www.hm.com/us/product/62635?article=62635-B'
p1772
aS'http://www.hm.com/us/product/65815?article=65815-D'
p1773
aS'http://www.hm.com/us/product/61723?article=61723-D'
p1774
aS'http://www.hm.com/us/product/65084?article=65084-A'
p1775
aS'http://www.hm.com/us/product/68770?article=68770-C'
p1776
aS'http://www.hm.com/us/product/70708?article=70708-C'
p1777
aS'http://www.hm.com/us/product/67395?article=67395-A'
p1778
aS'http://www.hm.com/us/product/63202?article=63202-A'
p1779
aS'http://www.hm.com/us/product/65572?article=65572-E'
p1780
aS'http://www.hm.com/us/product/60888?article=60888-B'
p1781
aS'http://www.hm.com/us/product/64205?article=64205-A'
p1782
aS'http://www.hm.com/us/product/67222?article=67222-A'
p1783
aS'http://www.hm.com/us/product/61932?article=61932-A'
p1784
aS'http://www.hm.com/us/product/66780?article=66780-F'
p1785
aS'http://www.hm.com/us/product/65572?article=65572-A'
p1786
aS'http://www.hm.com/us/product/65056?article=65056-B'
p1787
aS'http://www.hm.com/us/product/65751?article=65751-A'
p1788
aS'http://www.hm.com/us/product/40702?article=40702-C'
p1789
aS'http://www.hm.com/us/product/67619?article=67619-C'
p1790
aS'http://www.hm.com/us/product/62146?article=62146-C'
p1791
aS'http://www.hm.com/us/product/65490?article=65490-B'
p1792
aS'http://www.hm.com/us/product/59968?article=59968-A'
p1793
aS'http://www.hm.com/us/product/65497?article=65497-A'
p1794
aS'http://www.hm.com/us/product/62585?article=62585-A'
p1795
aS'http://www.hm.com/us/product/64804?article=64804-A'
p1796
aS'http://www.hm.com/us/product/62645?article=62645-C'
p1797
aS'http://www.hm.com/us/product/70858?article=70858-B'
p1798
aS'http://www.hm.com/us/product/38474?article=38474-Q'
p1799
aS'http://www.hm.com/us/product/46819?article=46819-C'
p1800
aS'http://www.hm.com/us/product/61945?article=61945-D'
p1801
aS'http://www.hm.com/us/product/61686?article=61686-I'
p1802
aS'http://www.hm.com/us/product/65023?article=65023-A'
p1803
aS'http://www.hm.com/us/product/71209?article=71209-A'
p1804
aS'http://www.hm.com/us/product/66654?article=66654-B'
p1805
aS'http://www.hm.com/us/product/64212?article=64212-B'
p1806
aS'http://www.hm.com/us/product/66562?article=66562-A'
p1807
aS'http://www.hm.com/us/product/65558?article=65558-D'
p1808
aS'http://www.hm.com/us/product/64884?article=64884-A'
p1809
aS'http://www.hm.com/us/product/57970?article=57970-A'
p1810
aS'http://www.hm.com/us/product/63841?article=63841-A'
p1811
aS'http://www.hm.com/us/product/67746?article=67746-A'
p1812
aS'http://www.hm.com/us/product/61933?article=61933-D'
p1813
aS'http://www.hm.com/us/product/65039?article=65039-B'
p1814
aS'http://www.hm.com/us/product/65649?article=65649-A'
p1815
aS'http://www.hm.com/us/product/64075?article=64075-D'
p1816
aS'http://www.hm.com/us/product/66555?article=66555-C'
p1817
aS'http://www.hm.com/us/product/67456?article=67456-A'
p1818
aS'http://www.hm.com/us/product/66654?article=66654-A'
p1819
aS'http://www.hm.com/us/product/66636?article=66636-A'
p1820
aS'http://www.hm.com/us/product/61336?article=61336-D'
p1821
aS'http://www.hm.com/us/product/64788?article=64788-A'
p1822
aS'http://www.hm.com/us/product/68333?article=68333-A'
p1823
aS'http://www.hm.com/us/product/56151?article=56151-D'
p1824
aS'http://www.hm.com/us/product/63660?article=63660-A'
p1825
aS'http://www.hm.com/us/product/59659?article=59659-H'
p1826
aS'http://www.hm.com/us/product/67593?article=67593-A'
p1827
aS'http://www.hm.com/us/product/66541?article=66541-A'
p1828
aS'http://www.hm.com/us/product/54871?article=54871-A'
p1829
aS'http://www.hm.com/us/product/63966?article=63966-B'
p1830
aS'http://www.hm.com/us/product/60898?article=60898-C'
p1831
aS'http://www.hm.com/us/product/60631?article=60631-E'
p1832
aS'http://www.hm.com/us/product/83903?article=83903-H'
p1833
aS'http://www.hm.com/us/product/68335?article=68335-D'
p1834
aS'http://www.hm.com/us/product/65799?article=65799-A'
p1835
aS'http://www.hm.com/us/product/66935?article=66935-A'
p1836
aS'http://www.hm.com/us/product/64930?article=64930-A'
p1837
aS'http://www.hm.com/us/product/61945?article=61945-C'
p1838
aS'http://www.hm.com/us/product/46339?article=46339-B'
p1839
aS'http://www.hm.com/us/product/68478?article=68478-A'
p1840
aS'http://www.hm.com/us/product/63830?article=63830-A'
p1841
aS'http://www.hm.com/us/product/64610?article=64610-A'
p1842
aS'http://www.hm.com/us/product/68335?article=68335-B'
p1843
aS'http://www.hm.com/us/product/57955?article=57955-A'
p1844
aS'http://www.hm.com/us/product/65764?article=65764-B'
p1845
aS'http://www.hm.com/us/product/64065?article=64065-C'
p1846
aS'http://www.hm.com/us/product/61895?article=61895-B'
p1847
aS'http://www.hm.com/us/product/63985?article=63985-B'
p1848
aS'http://www.hm.com/us/product/42465?article=42465-C'
p1849
aS'http://www.hm.com/us/product/64904?article=64904-C'
p1850
aS'http://www.hm.com/us/product/65293?article=65293-A'
p1851
aS'http://www.hm.com/us/product/63183?article=63183-C'
p1852
aS'http://www.hm.com/us/product/60626?article=60626-B'
p1853
aS'http://www.hm.com/us/product/68817?article=68817-A'
p1854
aS'http://www.hm.com/us/product/63600?article=63600-A'
p1855
aS'http://www.hm.com/us/product/59729?article=59729-A'
p1856
aS'http://www.hm.com/us/product/49409?article=49409-H'
p1857
aS'http://www.hm.com/us/product/52616?article=52616-K'
p1858
aS'http://www.hm.com/us/product/67407?article=67407-A'
p1859
aS'http://www.hm.com/us/product/60284?article=60284-I'
p1860
aS'http://www.hm.com/us/product/63783?article=63783-C'
p1861
aS'http://www.hm.com/us/product/67361?article=67361-A'
p1862
aS'http://www.hm.com/us/product/50661?article=50661-X'
p1863
aS'http://www.hm.com/us/product/60753?article=60753-B'
p1864
aS'http://www.hm.com/us/product/62568?article=62568-A'
p1865
aS'http://www.hm.com/us/product/66374?article=66374-A'
p1866
aS'http://www.hm.com/us/product/69134?article=69134-A'
p1867
aS'http://www.hm.com/us/product/70846?article=70846-A'
p1868
aS'http://www.hm.com/us/product/60095?article=60095-A'
p1869
aS'http://www.hm.com/us/product/63344?article=63344-E'
p1870
aS'http://www.hm.com/us/product/65753?article=65753-A'
p1871
aS'http://www.hm.com/us/product/63155?article=63155-B'
p1872
aS'http://www.hm.com/us/product/66273?article=66273-A'
p1873
aS'http://www.hm.com/us/product/62001?article=62001-B'
p1874
aS'http://www.hm.com/us/product/45580?article=45580-B'
p1875
aS'http://www.hm.com/us/product/63524?article=63524-A'
p1876
aS'http://www.hm.com/us/product/63425?article=63425-C'
p1877
aS'http://www.hm.com/us/product/62755?article=62755-D'
p1878
aS'http://www.hm.com/us/product/64209?article=64209-A'
p1879
aS'http://www.hm.com/us/product/69043?article=69043-A'
p1880
aS'http://www.hm.com/us/product/68567?article=68567-A'
p1881
aS'http://www.hm.com/us/product/68951?article=68951-A'
p1882
aS'http://www.hm.com/us/product/51928?article=51928-D'
p1883
aS'http://www.hm.com/us/product/63708?article=63708-A'
p1884
aS'http://www.hm.com/us/product/83516?article=83516-C'
p1885
aS'http://www.hm.com/us/product/65813?article=65813-A'
p1886
aS'http://www.hm.com/us/product/61903?article=61903-E'
p1887
aS'http://www.hm.com/us/product/63663?article=63663-A'
p1888
aS'http://www.hm.com/us/product/59475?article=59475-A'
p1889
aS'http://www.hm.com/us/product/68792?article=68792-A'
p1890
aS'http://www.hm.com/us/product/61950?article=61950-B'
p1891
aS'http://www.hm.com/us/product/60799?article=60799-B'
p1892
aS'http://www.hm.com/us/product/63971?article=63971-A'
p1893
aS'http://www.hm.com/us/product/66757?article=66757-A'
p1894
aS'http://www.hm.com/us/product/67303?article=67303-A'
p1895
aS'http://www.hm.com/us/product/51466?article=51466-F'
p1896
aS'http://www.hm.com/us/product/64805?article=64805-A'
p1897
aS'http://www.hm.com/us/product/42804?article=42804-D'
p1898
aS'http://www.hm.com/us/product/65909?article=65909-A'
p1899
aS'http://www.hm.com/us/product/65808?article=65808-A'
p1900
aS'http://www.hm.com/us/product/59663?article=59663-C'
p1901
aS'http://www.hm.com/us/product/52061?article=52061-C'
p1902
aS'http://www.hm.com/us/product/63172?article=63172-I'
p1903
aS'http://www.hm.com/us/product/63842?article=63842-A'
p1904
aS'http://www.hm.com/us/product/60969?article=60969-A'
p1905
aS'http://www.hm.com/us/product/67424?article=67424-B'
p1906
aS'http://www.hm.com/us/product/64332?article=64332-A'
p1907
aS'http://www.hm.com/us/product/66967?article=66967-B'
p1908
aS'http://www.hm.com/us/product/01114?article=01114-R'
p1909
aS'http://www.hm.com/us/product/69206?article=69206-C'
p1910
aS'http://www.hm.com/us/product/60244?article=60244-A'
p1911
aS'http://www.hm.com/us/product/63297?article=63297-A'
p1912
aS'http://www.hm.com/us/product/47087?article=47087-E'
p1913
aS'http://www.hm.com/us/product/59736?article=59736-C'
p1914
aS'http://www.hm.com/us/product/60271?article=60271-A'
p1915
aS'http://www.hm.com/us/product/67340?article=67340-B'
p1916
aS'http://www.hm.com/us/product/49313?article=49313-B'
p1917
aS'http://www.hm.com/us/product/64286?article=64286-G'
p1918
aS'http://www.hm.com/us/product/39426?article=39426-A'
p1919
aS'http://www.hm.com/us/product/64920?article=64920-C'
p1920
aS'http://www.hm.com/us/product/62640?article=62640-B'
p1921
aS'http://www.hm.com/us/product/64352?article=64352-A'
p1922
aS'http://www.hm.com/us/product/63808?article=63808-A'
p1923
aS'http://www.hm.com/us/product/64286?article=64286-E'
p1924
aS'http://www.hm.com/us/product/61864?article=61864-B'
p1925
aS'http://www.hm.com/us/product/61555?article=61555-F'
p1926
aS'http://www.hm.com/us/product/63662?article=63662-A'
p1927
aS'http://www.hm.com/us/product/51056?article=51056-B'
p1928
aS'http://www.hm.com/us/product/64852?article=64852-B'
p1929
aS'http://www.hm.com/us/product/67514?article=67514-A'
p1930
aS'http://www.hm.com/us/product/38806?article=38806-A'
p1931
aS'http://www.hm.com/us/product/11552?article=11552-N'
p1932
aS'http://www.hm.com/us/product/65593?article=65593-A'
p1933
aS'http://www.hm.com/us/product/58257?article=58257-F'
p1934
aS'http://www.hm.com/us/product/61852?article=61852-A'
p1935
aS'http://www.hm.com/us/product/67420?article=67420-C'
p1936
aS'http://www.hm.com/us/product/41624?article=41624-I'
p1937
aS'http://www.hm.com/us/product/61745?article=61745-B'
p1938
aS'http://www.hm.com/us/product/63845?article=63845-A'
p1939
aS'http://www.hm.com/us/product/62621?article=62621-B'
p1940
aS'http://www.hm.com/us/product/67226?article=67226-A'
p1941
aS'http://www.hm.com/us/product/56461?article=56461-A'
p1942
aS'http://www.hm.com/us/product/69437?article=69437-A'
p1943
aS'http://www.hm.com/us/product/64493?article=64493-F'
p1944
aS'http://www.hm.com/us/product/47595?article=47595-B'
p1945
aS'http://www.hm.com/us/product/59663?article=59663-B'
p1946
aS'http://www.hm.com/us/product/61686?article=61686-C'
p1947
aS'http://www.hm.com/us/product/63424?article=63424-B'
p1948
aS'http://www.hm.com/us/product/60048?article=60048-D'
p1949
aS'http://www.hm.com/us/product/61726?article=61726-A'
p1950
aS'http://www.hm.com/us/product/64282?article=64282-B'
p1951
aS'http://www.hm.com/us/product/67489?article=67489-D'
p1952
aS'http://www.hm.com/us/product/65053?article=65053-A'
p1953
aS'http://www.hm.com/us/product/62455?article=62455-C'
p1954
aS'http://www.hm.com/us/product/61697?article=61697-F'
p1955
aS'http://www.hm.com/us/product/63541?article=63541-A'
p1956
aS'http://www.hm.com/us/product/64944?article=64944-C'
p1957
aS'http://www.hm.com/us/product/62220?article=62220-B'
p1958
aS'http://www.hm.com/us/product/62635?article=62635-A'
p1959
aS'http://www.hm.com/us/product/66507?article=66507-A'
p1960
aS'http://www.hm.com/us/product/38488?article=38488-K'
p1961
aS'http://www.hm.com/us/product/38217?article=38217-N'
p1962
aS'http://www.hm.com/us/product/61514?article=61514-A'
p1963
aS'http://www.hm.com/us/product/60241?article=60241-D'
p1964
aS'http://www.hm.com/us/product/65471?article=65471-A'
p1965
aS'http://www.hm.com/us/product/89400?article=89400-R'
p1966
aS'http://www.hm.com/us/product/61788?article=61788-B'
p1967
aS'http://www.hm.com/us/product/70358?article=70358-A'
p1968
aS'http://www.hm.com/us/product/01937?article=01937-U'
p1969
aS'http://www.hm.com/us/product/58590?article=58590-D'
p1970
aS'http://www.hm.com/us/product/59736?article=59736-B'
p1971
aS'http://www.hm.com/us/product/49487?article=49487-D'
p1972
aS'http://www.hm.com/us/product/63202?article=63202-G'
p1973
aS'http://www.hm.com/us/product/65978?article=65978-A'
p1974
aS'http://www.hm.com/us/product/63647?article=63647-A'
p1975
aS'http://www.hm.com/us/product/61562?article=61562-C'
p1976
aS'http://www.hm.com/us/product/64119?article=64119-A'
p1977
aS'http://www.hm.com/us/product/69038?article=69038-A'
p1978
aS'http://www.hm.com/us/product/65845?article=65845-B'
p1979
aS'http://www.hm.com/us/product/62937?article=62937-B'
p1980
aS'http://www.hm.com/us/product/49930?article=49930-E'
p1981
aS'http://www.hm.com/us/product/69455?article=69455-A'
p1982
aS'http://www.hm.com/us/product/66200?article=66200-E'
p1983
aS'http://www.hm.com/us/product/65394?article=65394-A'
p1984
aS'http://www.hm.com/us/product/66196?article=66196-G'
p1985
aS'http://www.hm.com/us/product/47223?article=47223-F'
p1986
aS'http://www.hm.com/us/product/60626?article=60626-E'
p1987
aS'http://www.hm.com/us/product/50639?article=50639-L'
p1988
aS'http://www.hm.com/us/product/61947?article=61947-D'
p1989
aS'http://www.hm.com/us/product/65572?article=65572-D'
p1990
aS'http://www.hm.com/us/product/66012?article=66012-C'
p1991
aS'http://www.hm.com/us/product/59388?article=59388-D'
p1992
aS'http://www.hm.com/us/product/66938?article=66938-A'
p1993
aS'http://www.hm.com/us/product/68048?article=68048-A'
p1994
aS'http://www.hm.com/us/product/65710?article=65710-A'
p1995
aS'http://www.hm.com/us/product/64438?article=64438-C'
p1996
aS'http://www.hm.com/us/product/62025?article=62025-G'
p1997
aS'http://www.hm.com/us/product/69397?article=69397-A'
p1998
aS'http://www.hm.com/us/product/60284?article=60284-F'
p1999
aS'http://www.hm.com/us/product/68249?article=68249-A'
p2000
aS'http://www.hm.com/us/product/68066?article=68066-A'
p2001
aS'http://www.hm.com/us/product/60898?article=60898-B'
p2002
aS'http://www.hm.com/us/product/64068?article=64068-B'
p2003
aS'http://www.hm.com/us/product/60739?article=60739-B'
p2004
aS'http://www.hm.com/us/product/69839?article=69839-A'
p2005
aS'http://www.hm.com/us/product/67674?article=67674-F'
p2006
aS'http://www.hm.com/us/product/62556?article=62556-B'
p2007
aS'http://www.hm.com/us/product/52095?article=52095-A'
p2008
aS'http://www.hm.com/us/product/64860?article=64860-A'
p2009
aS'http://www.hm.com/us/product/61697?article=61697-A'
p2010
aS'http://www.hm.com/us/product/61301?article=61301-B'
p2011
aS'http://www.hm.com/us/product/68761?article=68761-A'
p2012
aS'http://www.hm.com/us/product/62524?article=62524-B'
p2013
aS'http://www.hm.com/us/product/59347?article=59347-B'
p2014
aS'http://www.hm.com/us/product/66403?article=66403-A'
p2015
aS'http://www.hm.com/us/product/64402?article=64402-C'
p2016
aS'http://www.hm.com/us/product/66360?article=66360-A'
p2017
aS'http://www.hm.com/us/product/72166?article=72166-B'
p2018
aS'http://www.hm.com/us/product/57675?article=57675-B'
p2019
aS'http://www.hm.com/us/product/67553?article=67553-A'
p2020
aS'http://www.hm.com/us/product/69782?article=69782-C'
p2021
aS'http://www.hm.com/us/product/60218?article=60218-D'
p2022
aS'http://www.hm.com/us/product/51059?article=51059-B'
p2023
aS'http://www.hm.com/us/product/58539?article=58539-B'
p2024
aS'http://www.hm.com/us/product/68816?article=68816-A'
p2025
aS'http://www.hm.com/us/product/68654?article=68654-B'
p2026
aS'http://www.hm.com/us/product/66680?article=66680-A'
p2027
aS'http://www.hm.com/us/product/65039?article=65039-C'
p2028
aS'http://www.hm.com/us/product/49440?article=49440-A'
p2029
aS'http://www.hm.com/us/product/64920?article=64920-A'
p2030
aS'http://www.hm.com/us/product/65817?article=65817-C'
p2031
aS'http://www.hm.com/us/product/64587?article=64587-A'
p2032
aS'http://www.hm.com/us/product/41624?article=41624-P'
p2033
aS'http://www.hm.com/us/product/66526?article=66526-A'
p2034
aS'http://www.hm.com/us/product/63037?article=63037-A'
p2035
aS'http://www.hm.com/us/product/61894?article=61894-C'
p2036
aS'http://www.hm.com/us/product/66313?article=66313-A'
p2037
aS'http://www.hm.com/us/product/67769?article=67769-A'
p2038
aS'http://www.hm.com/us/product/63555?article=63555-A'
p2039
aS'http://www.hm.com/us/product/63966?article=63966-A'
p2040
aS'http://www.hm.com/us/product/63966?article=63966-A'
p2041
aS'http://www.hm.com/us/product/70043?article=70043-B'
p2042
aS'http://www.hm.com/us/product/68836?article=68836-D'
p2043
aS'http://www.hm.com/us/product/65788?article=65788-A'
p2044
aS'http://www.hm.com/us/product/61336?article=61336-B'
p2045
aS'http://www.hm.com/us/product/70855?article=70855-A'
p2046
aS'http://www.hm.com/us/product/59511?article=59511-D'
p2047
aS'http://www.hm.com/us/product/38806?article=38806-G'
p2048
aS'http://www.hm.com/us/product/70834?article=70834-B'
p2049
aS'http://www.hm.com/us/product/60799?article=60799-C'
p2050
aS'http://www.hm.com/us/product/60130?article=60130-A'
p2051
aS'http://www.hm.com/us/product/65817?article=65817-A'
p2052
aS'http://www.hm.com/us/product/65011?article=65011-A'
p2053
aS'http://www.hm.com/us/product/70229?article=70229-A'
p2054
aS'http://www.hm.com/us/product/58590?article=58590-G'
p2055
aS'http://www.hm.com/us/product/77574?article=77574-S'
p2056
aS'http://www.hm.com/us/product/66535?article=66535-C'
p2057
aS'http://www.hm.com/us/product/63555?article=63555-B'
p2058
aS'http://www.hm.com/us/product/65474?article=65474-A'
p2059
aS'http://www.hm.com/us/product/62409?article=62409-A'
p2060
aS'http://www.hm.com/us/product/64105?article=64105-A'
p2061
aS'http://www.hm.com/us/product/64598?article=64598-A'
p2062
aS'http://www.hm.com/us/product/67270?article=67270-A'
p2063
aS'http://www.hm.com/us/product/64890?article=64890-A'
p2064
aS'http://www.hm.com/us/product/68651?article=68651-A'
p2065
aS'http://www.hm.com/us/product/53890?article=53890-J'
p2066
aS'http://www.hm.com/us/product/67262?article=67262-B'
p2067
aS'http://www.hm.com/us/product/63030?article=63030-A'
p2068
aS'http://www.hm.com/us/product/65889?article=65889-B'
p2069
aS'http://www.hm.com/us/product/65630?article=65630-A'
p2070
aS'http://www.hm.com/us/product/64791?article=64791-A'
p2071
aS'http://www.hm.com/us/product/68762?article=68762-A'
p2072
aS'http://www.hm.com/us/product/64381?article=64381-A'
p2073
aS'http://www.hm.com/us/product/60152?article=60152-A'
p2074
aS'http://www.hm.com/us/product/63462?article=63462-A'
p2075
aS'http://www.hm.com/us/product/69206?article=69206-D'
p2076
aS'http://www.hm.com/us/product/49386?article=49386-A'
p2077
aS'http://www.hm.com/us/product/66101?article=66101-F'
p2078
aS'http://www.hm.com/us/product/11551?article=11551-T'
p2079
aS'http://www.hm.com/us/product/64131?article=64131-G'
p2080
aS'http://www.hm.com/us/product/70708?article=70708-A'
p2081
aS'http://www.hm.com/us/product/50742?article=50742-E'
p2082
aS'http://www.hm.com/us/product/63842?article=63842-C'
p2083
aS'http://www.hm.com/us/product/61662?article=61662-A'
p2084
aS'http://www.hm.com/us/product/62601?article=62601-A'
p2085
aS'http://www.hm.com/us/product/56151?article=56151-E'
p2086
aS'http://www.hm.com/us/product/64944?article=64944-A'
p2087
aS'http://www.hm.com/us/product/67447?article=67447-A'
p2088
aS'http://www.hm.com/us/product/62481?article=62481-B'
p2089
aS'http://www.hm.com/us/product/67056?article=67056-A'
p2090
aS'http://www.hm.com/us/product/68396?article=68396-A'
p2091
aS'http://www.hm.com/us/product/64856?article=64856-A'
p2092
aS'http://www.hm.com/us/product/62429?article=62429-A'
p2093
aS'http://www.hm.com/us/product/70353?article=70353-A'
p2094
aS'http://www.hm.com/us/product/40702?article=40702-E'
p2095
aS'http://www.hm.com/us/product/63683?article=63683-B'
p2096
aS'http://www.hm.com/us/product/58812?article=58812-N'
p2097
aS'http://www.hm.com/us/product/58630?article=58630-E'
p2098
aS'http://www.hm.com/us/product/68958?article=68958-A'
p2099
aS'http://www.hm.com/us/product/19252?article=19252-H'
p2100
aS'http://www.hm.com/us/product/64256?article=64256-A'
p2101
aS'http://www.hm.com/us/product/49398?article=49398-E'
p2102
aS'http://www.hm.com/us/product/65809?article=65809-A'
p2103
aS'http://www.hm.com/us/product/49069?article=49069-Q'
p2104
aS'http://www.hm.com/us/product/68768?article=68768-C'
p2105
aS'http://www.hm.com/us/product/63217?article=63217-B'
p2106
aS'http://www.hm.com/us/product/59708?article=59708-B'
p2107
aS'http://www.hm.com/us/product/62555?article=62555-B'
p2108
aS'http://www.hm.com/us/product/62494?article=62494-A'
p2109
aS'http://www.hm.com/us/product/63683?article=63683-C'
p2110
aS'http://www.hm.com/us/product/59801?article=59801-A'
p2111
aS'http://www.hm.com/us/product/64816?article=64816-A'
p2112
aS'http://www.hm.com/us/product/69003?article=69003-A'
p2113
aS'http://www.hm.com/us/product/68275?article=68275-B'
p2114
aS'http://www.hm.com/us/product/62640?article=62640-A'
p2115
aS'http://www.hm.com/us/product/61675?article=61675-D'
p2116
aS'http://www.hm.com/us/product/66175?article=66175-A'
p2117
aS'http://www.hm.com/us/product/67489?article=67489-A'
p2118
aS'http://www.hm.com/us/product/61644?article=61644-B'
p2119
aS'http://www.hm.com/us/product/62758?article=62758-A'
p2120
aS'http://www.hm.com/us/product/64065?article=64065-A'
p2121
aS'http://www.hm.com/us/product/60225?article=60225-C'
p2122
aS'http://www.hm.com/us/product/63480?article=63480-B'
p2123
aS'http://www.hm.com/us/product/63751?article=63751-A'
p2124
aS'http://www.hm.com/us/product/61289?article=61289-A'
p2125
aS'http://www.hm.com/us/product/65999?article=65999-A'
p2126
aS'http://www.hm.com/us/product/61945?article=61945-A'
p2127
aS'http://www.hm.com/us/product/66752?article=66752-A'
p2128
aS'http://www.hm.com/us/product/65080?article=65080-A'
p2129
aS'http://www.hm.com/us/product/61158?article=61158-A'
p2130
aS'http://www.hm.com/us/product/65584?article=65584-C'
p2131
aS'http://www.hm.com/us/product/64747?article=64747-A'
p2132
aS'http://www.hm.com/us/product/16925?article=16925-I'
p2133
aS'http://www.hm.com/us/product/49942?article=49942-F'
p2134
aS'http://www.hm.com/us/product/61562?article=61562-E'
p2135
aS'http://www.hm.com/us/product/60631?article=60631-C'
p2136
aS'http://www.hm.com/us/product/61988?article=61988-N'
p2137
aS'http://www.hm.com/us/product/69041?article=69041-A'
p2138
aS'http://www.hm.com/us/product/67096?article=67096-A'
p2139
aS'http://www.hm.com/us/product/60076?article=60076-A'
p2140
aS'http://www.hm.com/us/product/61310?article=61310-G'
p2141
aS'http://www.hm.com/us/product/65461?article=65461-C'
p2142
aS'http://www.hm.com/us/product/68781?article=68781-B'
p2143
aS'http://www.hm.com/us/product/64212?article=64212-A'
p2144
aS'http://www.hm.com/us/product/19699?article=19699-J'
p2145
aS'http://www.hm.com/us/product/63172?article=63172-H'
p2146
aS'http://www.hm.com/us/product/65310?article=65310-A'
p2147
aS'http://www.hm.com/us/product/68490?article=68490-D'
p2148
aS'http://www.hm.com/us/product/60883?article=60883-E'
p2149
aS'http://www.hm.com/us/product/69041?article=69041-B'
p2150
aS'http://www.hm.com/us/product/67241?article=67241-B'
p2151
aS'http://www.hm.com/us/product/80816?article=80816-H'
p2152
aS'http://www.hm.com/us/product/56151?article=56151-F'
p2153
aS'http://www.hm.com/us/product/68564?article=68564-A'
p2154
aS'http://www.hm.com/us/product/61828?article=61828-A'
p2155
aS'http://www.hm.com/us/product/61828?article=61828-B'
p2156
aS'http://www.hm.com/us/product/62025?article=62025-F'
p2157
aS'http://www.hm.com/us/product/69435?article=69435-A'
p2158
aS'http://www.hm.com/us/product/62331?article=62331-A'
p2159
aS'http://www.hm.com/us/product/36318?article=36318-A'
p2160
aS'http://www.hm.com/us/product/58327?article=58327-C'
p2161
aS'http://www.hm.com/us/product/68333?article=68333-B'
p2162
aS'http://www.hm.com/us/product/66234?article=66234-E'
p2163
aS'http://www.hm.com/us/product/61086?article=61086-B'
p2164
aS'http://www.hm.com/us/product/61646?article=61646-A'
p2165
aS'http://www.hm.com/us/product/60301?article=60301-A'
p2166
aS'http://www.hm.com/us/product/66100?article=66100-A'
p2167
aS'http://www.hm.com/us/product/55414?article=55414-F'
p2168
aS'http://www.hm.com/us/product/63536?article=63536-A'
p2169
aS'http://www.hm.com/us/product/59833?article=59833-B'
p2170
aS'http://www.hm.com/us/product/66004?article=66004-B'
p2171
aS'http://www.hm.com/us/product/66157?article=66157-D'
p2172
aS'http://www.hm.com/us/product/19309?article=19309-D'
p2173
aS'http://www.hm.com/us/product/64965?article=64965-A'
p2174
aS'http://www.hm.com/us/product/65456?article=65456-B'
p2175
aS'http://www.hm.com/us/product/52756?article=52756-B'
p2176
aS'http://www.hm.com/us/product/68951?article=68951-B'
p2177
aS'http://www.hm.com/us/product/64462?article=64462-A'
p2178
aS'http://www.hm.com/us/product/69304?article=69304-A'
p2179
aS'http://www.hm.com/us/product/59798?article=59798-B'
p2180
aS'http://www.hm.com/us/product/64257?article=64257-A'
p2181
aS'http://www.hm.com/us/product/67297?article=67297-A'
p2182
aS'http://www.hm.com/us/product/60626?article=60626-C'
p2183
aS'http://www.hm.com/us/product/59388?article=59388-B'
p2184
aS'http://www.hm.com/us/product/64119?article=64119-B'
p2185
aS'http://www.hm.com/us/product/67302?article=67302-D'
p2186
aS'http://www.hm.com/us/product/65504?article=65504-B'
p2187
aS'http://www.hm.com/us/product/62142?article=62142-C'
p2188
aS'http://www.hm.com/us/product/61874?article=61874-A'
p2189
aS'http://www.hm.com/us/product/65896?article=65896-A'
p2190
aS'http://www.hm.com/us/product/62146?article=62146-D'
p2191
aS'http://www.hm.com/us/product/67678?article=67678-A'
p2192
aS'http://www.hm.com/us/product/61723?article=61723-A'
p2193
aS'http://www.hm.com/us/product/62150?article=62150-A'
p2194
aS'http://www.hm.com/us/product/65810?article=65810-B'
p2195
aS'http://www.hm.com/us/product/63314?article=63314-A'
p2196
aS'http://www.hm.com/us/product/66054?article=66054-A'
p2197
aS'http://www.hm.com/us/product/37088?article=37088-F'
p2198
aS'http://www.hm.com/us/product/68344?article=68344-A'
p2199
aS'http://www.hm.com/us/product/67005?article=67005-A'
p2200
aS'http://www.hm.com/us/product/68121?article=68121-A'
p2201
aS'http://www.hm.com/us/product/64791?article=64791-B'
p2202
aS'http://www.hm.com/us/product/67553?article=67553-B'
p2203
aS'http://www.hm.com/us/product/64065?article=64065-B'
p2204
aS'http://www.hm.com/us/product/64573?article=64573-B'
p2205
aS'http://www.hm.com/us/product/66979?article=66979-A'
p2206
aS'http://www.hm.com/us/product/61935?article=61935-H'
p2207
aS'http://www.hm.com/us/product/61301?article=61301-A'
p2208
aS'http://www.hm.com/us/product/61092?article=61092-M'
p2209
aS'http://www.hm.com/us/product/63012?article=63012-A'
p2210
aS'http://www.hm.com/us/product/62084?article=62084-A'
p2211
aS'http://www.hm.com/us/product/64856?article=64856-C'
p2212
aS'http://www.hm.com/us/product/60910?article=60910-K'
p2213
aS'http://www.hm.com/us/product/47223?article=47223-B'
p2214
aS'http://www.hm.com/us/product/61896?article=61896-A'
p2215
aS'http://www.hm.com/us/product/66656?article=66656-B'
p2216
aS'http://www.hm.com/us/product/68340?article=68340-A'
p2217
aS'http://www.hm.com/us/product/47450?article=47450-C'
p2218
aS'http://www.hm.com/us/product/49398?article=49398-C'
p2219
aS'http://www.hm.com/us/product/00628?article=00628-M'
p2220
aS'http://www.hm.com/us/product/70846?article=70846-B'
p2221
aS'http://www.hm.com/us/product/64801?article=64801-B'
p2222
aS'http://www.hm.com/us/product/59477?article=59477-A'
p2223
aS'http://www.hm.com/us/product/62991?article=62991-F'
p2224
aS'http://www.hm.com/us/product/62965?article=62965-C'
p2225
aS'http://www.hm.com/us/product/63092?article=63092-A'
p2226
aS'http://www.hm.com/us/product/64348?article=64348-A'
p2227
aS'http://www.hm.com/us/product/59808?article=59808-A'
p2228
aS'http://www.hm.com/us/product/65716?article=65716-A'
p2229
aS'http://www.hm.com/us/product/65584?article=65584-A'
p2230
aS'http://www.hm.com/us/product/69712?article=69712-A'
p2231
aS'http://www.hm.com/us/product/65373?article=65373-B'
p2232
aS'http://www.hm.com/us/product/65782?article=65782-A'
p2233
aS'http://www.hm.com/us/product/62571?article=62571-A'
p2234
aS'http://www.hm.com/us/product/64793?article=64793-A'
p2235
aS'http://www.hm.com/us/product/54983?article=54983-A'
p2236
aS'http://www.hm.com/us/product/67420?article=67420-B'
p2237
aS'http://www.hm.com/us/product/65810?article=65810-A'
p2238
aS'http://www.hm.com/us/product/66174?article=66174-A'
p2239
aS'http://www.hm.com/us/product/65516?article=65516-A'
p2240
aS'http://www.hm.com/us/product/50742?article=50742-B'
p2241
aS'http://www.hm.com/us/product/66265?article=66265-A'
p2242
aS'http://www.hm.com/us/product/57955?article=57955-B'
p2243
aS'http://www.hm.com/us/product/67155?article=67155-A'
p2244
aS'http://www.hm.com/us/product/56094?article=56094-A'
p2245
aS'http://www.hm.com/us/product/68899?article=68899-A'
p2246
aS'http://www.hm.com/us/product/11552?article=11552-P'
p2247
aS'http://www.hm.com/us/product/55462?article=55462-C'
p2248
aS'http://www.hm.com/us/product/68274?article=68274-A'
p2249
aS'http://www.hm.com/us/product/20244?article=20244-E'
p2250
aS'http://www.hm.com/us/product/49069?article=49069-J'
p2251
aS'http://www.hm.com/us/product/62164?article=62164-A'
p2252
aS'http://www.hm.com/us/product/59496?article=59496-A'
p2253
aS'http://www.hm.com/us/product/61972?article=61972-G'
p2254
aS'http://www.hm.com/us/product/60840?article=60840-A'
p2255
aS'http://www.hm.com/us/product/60117?article=60117-B'
p2256
aS'http://www.hm.com/us/product/69206?article=69206-E'
p2257
aS'http://www.hm.com/us/product/71160?article=71160-A'
p2258
aS'http://www.hm.com/us/product/64871?article=64871-B'
p2259
aS'http://www.hm.com/us/product/60117?article=60117-C'
p2260
aS'http://www.hm.com/us/product/65981?article=65981-A'
p2261
aS'http://www.hm.com/us/product/62331?article=62331-B'
p2262
aS'http://www.hm.com/us/product/66030?article=66030-D'
p2263
aS'http://www.hm.com/us/product/64801?article=64801-A'
p2264
aS'http://www.hm.com/us/product/77574?article=77574-U'
p2265
aS'http://www.hm.com/us/product/56737?article=56737-A'
p2266
aS'http://www.hm.com/us/product/66443?article=66443-A'
p2267
aS'http://www.hm.com/us/product/63012?article=63012-F'
p2268
aS'http://www.hm.com/us/product/63966?article=63966-D'
p2269
aS'http://www.hm.com/us/product/67486?article=67486-A'
p2270
aS'http://www.hm.com/us/product/64209?article=64209-C'
p2271
aS'http://www.hm.com/us/product/66026?article=66026-B'
p2272
aS'http://www.hm.com/us/product/68797?article=68797-A'
p2273
aS'http://www.hm.com/us/product/84044?article=84044-B'
p2274
aS'http://www.hm.com/us/product/65562?article=65562-A'
p2275
aS'http://www.hm.com/us/product/62544?article=62544-C'
p2276
aS'http://www.hm.com/us/product/61398?article=61398-A'
p2277
aS'http://www.hm.com/us/product/67253?article=67253-A'
p2278
aS'http://www.hm.com/us/product/62037?article=62037-D'
p2279
aS'http://www.hm.com/us/product/60847?article=60847-A'
p2280
aS'http://www.hm.com/us/product/62965?article=62965-B'
p2281
aS'http://www.hm.com/us/product/67424?article=67424-A'
p2282
aS'http://www.hm.com/us/product/47087?article=47087-Q'
p2283
aS'http://www.hm.com/us/product/69782?article=69782-B'
p2284
aS'http://www.hm.com/us/product/59455?article=59455-A'
p2285
aS'http://www.hm.com/us/product/64952?article=64952-A'
p2286
aS'http://www.hm.com/us/product/60860?article=60860-A'
p2287
aS'http://www.hm.com/us/product/62744?article=62744-C'
p2288
aS'http://www.hm.com/us/product/53263?article=53263-E'
p2289
aS'http://www.hm.com/us/product/41314?article=41314-H'
p2290
aS'http://www.hm.com/us/product/49487?article=49487-C'
p2291
aS'http://www.hm.com/us/product/40702?article=40702-F'
p2292
aS'http://www.hm.com/us/product/41646?article=41646-N'
p2293
aS'http://www.hm.com/us/product/63684?article=63684-B'
p2294
aS'http://www.hm.com/us/product/53262?article=53262-C'
p2295
aS'http://www.hm.com/us/product/61988?article=61988-B'
p2296
aS'http://www.hm.com/us/product/64693?article=64693-A'
p2297
aS'http://www.hm.com/us/product/68020?article=68020-A'
p2298
aS'http://www.hm.com/us/product/65312?article=65312-A'
p2299
aS'http://www.hm.com/us/product/66909?article=66909-A'
p2300
aS'http://www.hm.com/us/product/61988?article=61988-K'
p2301
aS'http://www.hm.com/us/product/38460?article=38460-J'
p2302
aS'http://www.hm.com/us/product/65510?article=65510-A'
p2303
aS'http://www.hm.com/us/product/36678?article=36678-A'
p2304
aS'http://www.hm.com/us/product/61784?article=61784-C'
p2305
aS'http://www.hm.com/us/product/66356?article=66356-A'
p2306
aS'http://www.hm.com/us/product/64246?article=64246-A'
p2307
aS'http://www.hm.com/us/product/65817?article=65817-B'
p2308
aS'http://www.hm.com/us/product/60126?article=60126-C'
p2309
aS'http://www.hm.com/us/product/11551?article=11551-U'
p2310
aS'http://www.hm.com/us/product/36599?article=36599-C'
p2311
aS'http://www.hm.com/us/product/64634?article=64634-B'
p2312
aS'http://www.hm.com/us/product/67761?article=67761-A'
p2313
aS'http://www.hm.com/us/product/67561?article=67561-A'
p2314
aS'http://www.hm.com/us/product/66822?article=66822-A'
p2315
aS'http://www.hm.com/us/product/67630?article=67630-A'
p2316
aS'http://www.hm.com/us/product/64979?article=64979-A'
p2317
aS'http://www.hm.com/us/product/62621?article=62621-A'
p2318
aS'http://www.hm.com/us/product/02255?article=02255-D'
p2319
aS'http://www.hm.com/us/product/68762?article=68762-B'
p2320
aS'http://www.hm.com/us/product/64950?article=64950-A'
p2321
aS'http://www.hm.com/us/product/61781?article=61781-A'
p2322
aS'http://www.hm.com/us/product/39534?article=39534-F'
p2323
aS'http://www.hm.com/us/product/63515?article=63515-B'
p2324
aS'http://www.hm.com/us/product/63093?article=63093-A'
p2325
aS'http://www.hm.com/us/product/66023?article=66023-A'
p2326
aS'http://www.hm.com/us/product/64342?article=64342-A'
p2327
aS'http://www.hm.com/us/product/57750?article=57750-C'
p2328
aS'http://www.hm.com/us/product/67253?article=67253-B'
p2329
aS'http://www.hm.com/us/product/65839?article=65839-A'
p2330
aS'http://www.hm.com/us/product/49930?article=49930-D'
p2331
aS'http://www.hm.com/us/product/65492?article=65492-A'
p2332
aS'http://www.hm.com/us/product/00628?article=00628-L'
p2333
aS'http://www.hm.com/us/product/62267?article=62267-A'
p2334
aS'http://www.hm.com/us/product/60077?article=60077-A'
p2335
aS'http://www.hm.com/us/product/65242?article=65242-A'
p2336
aS'http://www.hm.com/us/product/65045?article=65045-A'
p2337
aS'http://www.hm.com/us/product/66692?article=66692-A'
p2338
aS'http://www.hm.com/us/product/61950?article=61950-A'
p2339
aS'http://www.hm.com/us/product/57322?article=57322-A'
p2340
aS'http://www.hm.com/us/product/70446?article=70446-C'
p2341
aS'http://www.hm.com/us/product/66784?article=66784-A'
p2342
aS'http://www.hm.com/us/product/71162?article=71162-B'
p2343
aS'http://www.hm.com/us/product/65809?article=65809-B'
p2344
aS'http://www.hm.com/us/product/61988?article=61988-L'
p2345
aS'http://www.hm.com/us/product/65492?article=65492-B'
p2346
aS'http://www.hm.com/us/product/64088?article=64088-A'
p2347
aS'http://www.hm.com/us/product/66964?article=66964-B'
p2348
aS'http://www.hm.com/us/product/68430?article=68430-A'
p2349
aS'http://www.hm.com/us/product/65629?article=65629-A'
p2350
aS'http://www.hm.com/us/product/63493?article=63493-E'
p2351
aS'http://www.hm.com/us/product/48315?article=48315-B'
p2352
aS'http://www.hm.com/us/product/64871?article=64871-A'
p2353
aS'http://www.hm.com/us/product/51157?article=51157-A'
p2354
aS'http://www.hm.com/us/product/64109?article=64109-A'
p2355
aS'http://www.hm.com/us/product/65064?article=65064-A'
p2356
aS'http://www.hm.com/us/product/65243?article=65243-A'
p2357
aS'http://www.hm.com/us/product/67263?article=67263-A'
p2358
aS'http://www.hm.com/us/product/59490?article=59490-D'
p2359
aS'http://www.hm.com/us/product/68430?article=68430-E'
p2360
aS'http://www.hm.com/us/product/59827?article=59827-B'
p2361
aS'http://www.hm.com/us/product/66334?article=66334-A'
p2362
aS'http://www.hm.com/us/product/68347?article=68347-A'
p2363
aS'http://www.hm.com/us/product/63711?article=63711-A'
p2364
aS'http://www.hm.com/us/product/68013?article=68013-B'
p2365
aS'http://www.hm.com/us/product/59870?article=59870-A'
p2366
aS'http://www.hm.com/us/product/70269?article=70269-B'
p2367
aS'http://www.hm.com/us/product/61724?article=61724-A'
p2368
aS'http://www.hm.com/us/product/67593?article=67593-B'
p2369
aS'http://www.hm.com/us/product/59802?article=59802-C'
p2370
aS'http://www.hm.com/us/product/59479?article=59479-A'
p2371
aS'http://www.hm.com/us/product/63683?article=63683-A'
p2372
aS'http://www.hm.com/us/product/67069?article=67069-A'
p2373
aS'http://www.hm.com/us/product/65535?article=65535-C'
p2374
aS'http://www.hm.com/us/product/67446?article=67446-A'
p2375
aS'http://www.hm.com/us/product/59824?article=59824-A'
p2376
aS'http://www.hm.com/us/product/60841?article=60841-A'
p2377
aS'http://www.hm.com/us/product/65765?article=65765-A'
p2378
aS'http://www.hm.com/us/product/67497?article=67497-A'
p2379
aS'http://www.hm.com/us/product/61895?article=61895-C'
p2380
aS'http://www.hm.com/us/product/66301?article=66301-B'
p2381
aS'http://www.hm.com/us/product/70267?article=70267-A'
p2382
aS'http://www.hm.com/us/product/46615?article=46615-F'
p2383
aS'http://www.hm.com/us/product/63515?article=63515-C'
p2384
aS'http://www.hm.com/us/product/62619?article=62619-A'
p2385
aS'http://www.hm.com/us/product/66978?article=66978-A'
p2386
aS'http://www.hm.com/us/product/60126?article=60126-D'
p2387
aS'http://www.hm.com/us/product/59495?article=59495-A'
p2388
aS'http://www.hm.com/us/product/65576?article=65576-C'
p2389
aS'http://www.hm.com/us/product/60798?article=60798-A'
p2390
aS'http://www.hm.com/us/product/64858?article=64858-A'
p2391
aS'http://www.hm.com/us/product/63658?article=63658-B'
p2392
aS'http://www.hm.com/us/product/60846?article=60846-B'
p2393
aS'http://www.hm.com/us/product/51014?article=51014-A'
p2394
aS'http://www.hm.com/us/product/58795?article=58795-B'
p2395
aS'http://www.hm.com/us/product/26674?article=26674-D'
p2396
aS'http://www.hm.com/us/product/65490?article=65490-A'
p2397
aS'http://www.hm.com/us/product/64682?article=64682-A'
p2398
aS'http://www.hm.com/us/product/63753?article=63753-B'
p2399
aS'http://www.hm.com/us/product/61085?article=61085-B'
p2400
aS'http://www.hm.com/us/product/65716?article=65716-E'
p2401
aS'http://www.hm.com/us/product/62096?article=62096-B'
p2402
aS'http://www.hm.com/us/product/64758?article=64758-A'
p2403
aS'http://www.hm.com/us/product/57434?article=57434-A'
p2404
aS'http://www.hm.com/us/product/64939?article=64939-E'
p2405
aS'http://www.hm.com/us/product/65022?article=65022-B'
p2406
aS'http://www.hm.com/us/product/63783?article=63783-B'
p2407
aS'http://www.hm.com/us/product/66403?article=66403-B'
p2408
aS'http://www.hm.com/us/product/46615?article=46615-D'
p2409
aS'http://www.hm.com/us/product/64280?article=64280-A'
p2410
aS'http://www.hm.com/us/product/69206?article=69206-B'
p2411
aS'http://www.hm.com/us/product/67710?article=67710-A'
p2412
aS'http://www.hm.com/us/product/56448?article=56448-A'
p2413
aS'http://www.hm.com/us/product/67421?article=67421-A'
p2414
aS'http://www.hm.com/us/product/50742?article=50742-H'
p2415
aS'http://www.hm.com/us/product/66657?article=66657-A'
p2416
aS'http://www.hm.com/us/product/59736?article=59736-A'
p2417
aS'http://www.hm.com/us/product/64280?article=64280-C'
p2418
aS'http://www.hm.com/us/product/63515?article=63515-A'
p2419
aS'http://www.hm.com/us/product/61398?article=61398-B'
p2420
aS'http://www.hm.com/us/product/50715?article=50715-E'
p2421
aS'http://www.hm.com/us/product/62355?article=62355-H'
p2422
aS'http://www.hm.com/us/product/63854?article=63854-A'
p2423
aS'http://www.hm.com/us/product/38474?article=38474-G'
p2424
aS'http://www.hm.com/us/product/66810?article=66810-A'
p2425
aS'http://www.hm.com/us/product/65558?article=65558-C'
p2426
aS'http://www.hm.com/us/product/68271?article=68271-B'
p2427
aS'http://www.hm.com/us/product/49828?article=49828-E'
p2428
aS'http://www.hm.com/us/product/01635?article=01635-A'
p2429
aS'http://www.hm.com/us/product/61310?article=61310-H'
p2430
aS'http://www.hm.com/us/product/68724?article=68724-A'
p2431
aS'http://www.hm.com/us/product/65735?article=65735-B'
p2432
aS'http://www.hm.com/us/product/62590?article=62590-D'
p2433
aS'http://www.hm.com/us/product/63092?article=63092-C'
p2434
aS'http://www.hm.com/us/product/67273?article=67273-A'
p2435
aS'http://www.hm.com/us/product/66101?article=66101-E'
p2436
aS'http://www.hm.com/us/product/60131?article=60131-A'
p2437
aS'http://www.hm.com/us/product/65584?article=65584-D'
p2438
aS'http://www.hm.com/us/product/61837?article=61837-A'
p2439
aS'http://www.hm.com/us/product/67271?article=67271-B'
p2440
aS'http://www.hm.com/us/product/65456?article=65456-C'
p2441
aS'http://www.hm.com/us/product/70320?article=70320-A'
p2442
aS'http://www.hm.com/us/product/59533?article=59533-B'
p2443
aS'http://www.hm.com/us/product/62066?article=62066-C'
p2444
aS'http://www.hm.com/us/product/68582?article=68582-A'
p2445
aS'http://www.hm.com/us/product/41646?article=41646-S'
p2446
aS'http://www.hm.com/us/product/52756?article=52756-E'
p2447
aS'http://www.hm.com/us/product/68163?article=68163-E'
p2448
aS'http://www.hm.com/us/product/60241?article=60241-C'
p2449
aS'http://www.hm.com/us/product/63057?article=63057-A'
p2450
aS'http://www.hm.com/us/product/61555?article=61555-E'
p2451
aS'http://www.hm.com/us/product/62544?article=62544-A'
p2452
aS'http://www.hm.com/us/product/59510?article=59510-B'
p2453
aS'http://www.hm.com/us/product/66291?article=66291-A'
p2454
aS'http://www.hm.com/us/product/68781?article=68781-A'
p2455
aS'http://www.hm.com/us/product/59689?article=59689-C'
p2456
aS'http://www.hm.com/us/product/66946?article=66946-A'
p2457
aS'http://www.hm.com/us/product/51466?article=51466-A'
p2458
aS'http://www.hm.com/us/product/50549?article=50549-E'
p2459
aS'http://www.hm.com/us/product/59063?article=59063-B'
p2460
aS'http://www.hm.com/us/product/62946?article=62946-A'
p2461
aS'http://www.hm.com/us/product/60753?article=60753-A'
p2462
aS'http://www.hm.com/us/product/61364?article=61364-A'
p2463
aS'http://www.hm.com/us/product/71003?article=71003-B'
p2464
aS'http://www.hm.com/us/product/65885?article=65885-B'
p2465
aS'http://www.hm.com/us/product/63814?article=63814-B'
p2466
aS'http://www.hm.com/us/product/65594?article=65594-A'
p2467
aS'http://www.hm.com/us/product/65859?article=65859-A'
p2468
aS'http://www.hm.com/us/product/64949?article=64949-A'
p2469
aS'http://www.hm.com/us/product/63811?article=63811-A'
p2470
aS'http://www.hm.com/us/product/64067?article=64067-A'
p2471
aS'http://www.hm.com/us/product/51928?article=51928-F'
p2472
aS'http://www.hm.com/us/product/52073?article=52073-A'
p2473
aS'http://www.hm.com/us/product/59827?article=59827-A'
p2474
aS'http://www.hm.com/us/product/66467?article=66467-B'
p2475
aS'http://www.hm.com/us/product/62817?article=62817-A'
p2476
aS'http://www.hm.com/us/product/63037?article=63037-B'
p2477
aS'http://www.hm.com/us/product/60632?article=60632-J'
p2478
aS'http://www.hm.com/us/product/67099?article=67099-A'
p2479
aS'http://www.hm.com/us/product/62353?article=62353-A'
p2480
aS'http://www.hm.com/us/product/64168?article=64168-A'
p2481
aS'http://www.hm.com/us/product/89328?article=89328-C'
p2482
aS'http://www.hm.com/us/product/67623?article=67623-A'
p2483
aS'http://www.hm.com/us/product/59063?article=59063-A'
p2484
aS'http://www.hm.com/us/product/64046?article=64046-A'
p2485
aS'http://www.hm.com/us/product/64889?article=64889-A'
p2486
aS'http://www.hm.com/us/product/61675?article=61675-A'
p2487
aS'http://www.hm.com/us/product/68583?article=68583-A'
p2488
aS'http://www.hm.com/us/product/66683?article=66683-A'
p2489
aS'http://www.hm.com/us/product/49069?article=49069-N'
p2490
aS'http://www.hm.com/us/product/58571?article=58571-A'
p2491
aS'http://www.hm.com/us/product/70269?article=70269-A'
p2492
aS'http://www.hm.com/us/product/63701?article=63701-A'
p2493
aS'http://www.hm.com/us/product/66946?article=66946-B'
p2494
aS'http://www.hm.com/us/product/57940?article=57940-A'
p2495
aS'http://www.hm.com/us/product/01635?article=01635-B'
p2496
aS'http://www.hm.com/us/product/64403?article=64403-A'
p2497
aS'http://www.hm.com/us/product/65617?article=65617-A'
p2498
aS'http://www.hm.com/us/product/63768?article=63768-B'
p2499
aS'http://www.hm.com/us/product/59537?article=59537-B'
p2500
aS'http://www.hm.com/us/product/70126?article=70126-B'
p2501
aS'http://www.hm.com/us/product/52326?article=52326-A'
p2502
aS'http://www.hm.com/us/product/67765?article=67765-A'
p2503
aS'http://www.hm.com/us/product/89400?article=89400-Q'
p2504
aS'http://www.hm.com/us/product/68113?article=68113-A'
p2505
aS'http://www.hm.com/us/product/62582?article=62582-A'
p2506
aS'http://www.hm.com/us/product/61848?article=61848-B'
p2507
aS'http://www.hm.com/us/product/68439?article=68439-A'
p2508
aS'http://www.hm.com/us/product/83516?article=83516-D'
p2509
aS'http://www.hm.com/us/product/65017?article=65017-A'
p2510
aS'http://www.hm.com/us/product/60602?article=60602-A'
p2511
aS'http://www.hm.com/us/product/62540?article=62540-A'
p2512
aS'http://www.hm.com/us/product/33816?article=33816-D'
p2513
aS'http://www.hm.com/us/product/60920?article=60920-A'
p2514
aS'http://www.hm.com/us/product/62267?article=62267-B'
p2515
aS'http://www.hm.com/us/product/62989?article=62989-A'
p2516
aS'http://www.hm.com/us/product/59970?article=59970-A'
p2517
aS'http://www.hm.com/us/product/61745?article=61745-H'
p2518
aS'http://www.hm.com/us/product/51288?article=51288-H'
p2519
aS'http://www.hm.com/us/product/61709?article=61709-A'
p2520
aS'http://www.hm.com/us/product/67792?article=67792-D'
p2521
aS'http://www.hm.com/us/product/66478?article=66478-C'
p2522
aS'http://www.hm.com/us/product/68430?article=68430-B'
p2523
aS'http://www.hm.com/us/product/54222?article=54222-C'
p2524
aS'http://www.hm.com/us/product/63012?article=63012-C'
p2525
aS'http://www.hm.com/us/product/62561?article=62561-A'
p2526
aS'http://www.hm.com/us/product/64773?article=64773-A'
p2527
aS'http://www.hm.com/us/product/55059?article=55059-C'
p2528
aS'http://www.hm.com/us/product/65223?article=65223-B'
p2529
aS'http://www.hm.com/us/product/62735?article=62735-B'
p2530
aS'http://www.hm.com/us/product/55100?article=55100-E'
p2531
aS'http://www.hm.com/us/product/66053?article=66053-A'
p2532
aS'http://www.hm.com/us/product/64247?article=64247-A'
p2533
aS'http://www.hm.com/us/product/62376?article=62376-A'
p2534
aS'http://www.hm.com/us/product/58812?article=58812-R'
p2535
aS'http://www.hm.com/us/product/11714?article=11714-I'
p2536
aS'http://www.hm.com/us/product/35475?article=35475-C'
p2537
aS'http://www.hm.com/us/product/64715?article=64715-A'
p2538
aS'http://www.hm.com/us/product/64862?article=64862-A'
p2539
aS'http://www.hm.com/us/product/63814?article=63814-A'
p2540
aS'http://www.hm.com/us/product/65735?article=65735-A'
p2541
aS'http://www.hm.com/us/product/60254?article=60254-A'
p2542
aS'http://www.hm.com/us/product/62991?article=62991-I'
p2543
aS'http://www.hm.com/us/product/62096?article=62096-A'
p2544
aS'http://www.hm.com/us/product/60077?article=60077-B'
p2545
aS'http://www.hm.com/us/product/63858?article=63858-A'
p2546
aS'http://www.hm.com/us/product/62025?article=62025-B'
p2547
aS'http://www.hm.com/us/product/63092?article=63092-B'
p2548
aS'http://www.hm.com/us/product/58077?article=58077-B'
p2549
aS'http://www.hm.com/us/product/58576?article=58576-B'
p2550
aS'http://www.hm.com/us/product/67172?article=67172-B'
p2551
aS'http://www.hm.com/us/product/65060?article=65060-A'
p2552
aS'http://www.hm.com/us/product/37088?article=37088-I'
p2553
aS'http://www.hm.com/us/product/64712?article=64712-A'
p2554
aS'http://www.hm.com/us/product/62267?article=62267-C'
p2555
aS'http://www.hm.com/us/product/64463?article=64463-I'
p2556
aS'http://www.hm.com/us/product/59320?article=59320-A'
p2557
aS'http://www.hm.com/us/product/59662?article=59662-A'
p2558
aS'http://www.hm.com/us/product/58837?article=58837-B'
p2559
aS'http://www.hm.com/us/product/64341?article=64341-A'
p2560
aS'http://www.hm.com/us/product/63228?article=63228-A'
p2561
aS'http://www.hm.com/us/product/64109?article=64109-B'
p2562
aS'http://www.hm.com/us/product/65790?article=65790-A'
p2563
aS'http://www.hm.com/us/product/68547?article=68547-A'
p2564
aS'http://www.hm.com/us/product/59928?article=59928-A'
p2565
aS'http://www.hm.com/us/product/65619?article=65619-A'
p2566
aS'http://www.hm.com/us/product/64581?article=64581-A'
p2567
aS'http://www.hm.com/us/product/53263?article=53263-F'
p2568
aS'http://www.hm.com/us/product/53173?article=53173-A'
p2569
aS'http://www.hm.com/us/product/59353?article=59353-A'
p2570
aS'http://www.hm.com/us/product/68764?article=68764-A'
p2571
aS'http://www.hm.com/us/product/70025?article=70025-A'
p2572
aS'http://www.hm.com/us/product/49322?article=49322-B'
p2573
aS'http://www.hm.com/us/product/11535?article=11535-V'
p2574
aS'http://www.hm.com/us/product/65404?article=65404-B'
p2575
aS'http://www.hm.com/us/product/63021?article=63021-A'
p2576
aS'http://www.hm.com/us/product/64894?article=64894-A'
p2577
aS'http://www.hm.com/us/product/65373?article=65373-A'
p2578
aS'http://www.hm.com/us/product/63757?article=63757-A'
p2579
aS'http://www.hm.com/us/product/58355?article=58355-B'
p2580
aS'http://www.hm.com/us/product/60739?article=60739-D'
p2581
aS'http://www.hm.com/us/product/70858?article=70858-A'
p2582
aS'http://www.hm.com/us/product/63202?article=63202-D'
p2583
aS'http://www.hm.com/us/product/67511?article=67511-D'
p2584
aS'http://www.hm.com/us/product/66304?article=66304-B'
p2585
aS'http://www.hm.com/us/product/61344?article=61344-A'
p2586
aS'http://www.hm.com/us/product/11551?article=11551-V'
p2587
aS'http://www.hm.com/us/product/67887?article=67887-B'
p2588
aS'http://www.hm.com/us/product/64978?article=64978-A'
p2589
aS'http://www.hm.com/us/product/52876?article=52876-B'
p2590
aS'http://www.hm.com/us/product/11535?article=11535-T'
p2591
aS'http://www.hm.com/us/product/64247?article=64247-B'
p2592
aS'http://www.hm.com/us/product/65586?article=65586-A'
p2593
aS'http://www.hm.com/us/product/67069?article=67069-B'
p2594
aS'http://www.hm.com/us/product/59802?article=59802-B'
p2595
aS'http://www.hm.com/us/product/59808?article=59808-E'
p2596
aS'http://www.hm.com/us/product/56240?article=56240-A'
p2597
aS'http://www.hm.com/us/product/63898?article=63898-B'
p2598
aS'http://www.hm.com/us/product/59428?article=59428-A'
p2599
aS'http://www.hm.com/us/product/64213?article=64213-A'
p2600
aS'http://www.hm.com/us/product/66304?article=66304-A'
p2601
aS'http://www.hm.com/us/product/60126?article=60126-B'
p2602
aS'http://www.hm.com/us/product/65832?article=65832-A'
p2603
aS'http://www.hm.com/us/product/59138?article=59138-B'
p2604
aS'http://www.hm.com/us/product/59164?article=59164-C'
p2605
aS'http://www.hm.com/us/product/64573?article=64573-D'
p2606
aS'http://www.hm.com/us/product/64669?article=64669-B'
p2607
aS'http://www.hm.com/us/product/65894?article=65894-A'
p2608
aS'http://www.hm.com/us/product/69206?article=69206-A'
p2609
aS'http://www.hm.com/us/product/62972?article=62972-A'
p2610
aS'http://www.hm.com/us/product/57631?article=57631-A'
p2611
aS'http://www.hm.com/us/product/67887?article=67887-A'
p2612
aS'http://www.hm.com/us/product/64785?article=64785-A'
p2613
aS'http://www.hm.com/us/product/61148?article=61148-A'
p2614
aS'http://www.hm.com/us/product/12895?article=12895-G'
p2615
aS'http://www.hm.com/us/product/51466?article=51466-G'
p2616
aS'http://www.hm.com/us/product/61988?article=61988-G'
p2617
aS'http://www.hm.com/us/product/67454?article=67454-B'
p2618
aS'http://www.hm.com/us/product/62814?article=62814-A'
p2619
aS'http://www.hm.com/us/product/57941?article=57941-C'
p2620
aS'http://www.hm.com/us/product/66486?article=66486-A'
p2621
aS'http://www.hm.com/us/product/19307?article=19307-E'
p2622
aS'http://www.hm.com/us/product/61336?article=61336-E'
p2623
aS'http://www.hm.com/us/product/64525?article=64525-A'
p2624
aS'http://www.hm.com/us/product/61675?article=61675-E'
p2625
aS'http://www.hm.com/us/product/02963?article=02963-B'
p2626
aS'http://www.hm.com/us/product/63879?article=63879-A'
p2627
aS'http://www.hm.com/us/product/67880?article=67880-A'
p2628
aS'http://www.hm.com/us/product/83904?article=83904-Z'
p2629
aS'http://www.hm.com/us/product/58077?article=58077-A'
p2630
aS'http://www.hm.com/us/product/64307?article=64307-A'
p2631
aS'http://www.hm.com/us/product/65089?article=65089-A'
p2632
aS'http://www.hm.com/us/product/64420?article=64420-A'
p2633
aS'http://www.hm.com/us/product/54279?article=54279-A'
p2634
aS'http://www.hm.com/us/product/65690?article=65690-A'
p2635
aS'http://www.hm.com/us/product/00832?article=00832-R'
p2636
aS'http://www.hm.com/us/product/61848?article=61848-A'
p2637
aS'http://www.hm.com/us/product/59256?article=59256-A'
p2638
aS'http://www.hm.com/us/product/60632?article=60632-I'
p2639
aS'http://www.hm.com/us/product/83560?article=83560-U'
p2640
aS'http://www.hm.com/us/product/64891?article=64891-A'
p2641
aS'http://www.hm.com/us/product/60597?article=60597-A'
p2642
aS'http://www.hm.com/us/product/61122?article=61122-A'
p2643
aS'http://www.hm.com/us/product/87142?article=87142-G'
p2644
aS'http://www.hm.com/us/product/67454?article=67454-A'
p2645
aS'http://www.hm.com/us/product/34616?article=34616-A'
p2646
aS'http://www.hm.com/us/product/11552?article=11552-U'
p2647
aS'http://www.hm.com/us/product/65244?article=65244-A'
p2648
aS'http://www.hm.com/us/product/64170?article=64170-B'
p2649
aS'http://www.hm.com/us/product/65193?article=65193-A'
p2650
aS'http://www.hm.com/us/product/20767?article=20767-G'
p2651
aS'http://www.hm.com/us/product/60684?article=60684-A'
p2652
aS'http://www.hm.com/us/product/61523?article=61523-A'
p2653
aS'http://www.hm.com/us/product/61291?article=61291-B'
p2654
aS'http://www.hm.com/us/product/65221?article=65221-A'
p2655
aS'http://www.hm.com/us/product/62142?article=62142-A'
p2656
aS'http://www.hm.com/us/product/66758?article=66758-A'
p2657
aS'http://www.hm.com/us/product/59347?article=59347-F'
p2658
aS'http://www.hm.com/us/product/52094?article=52094-A'
p2659
aS'http://www.hm.com/us/product/20767?article=20767-E'
p2660
aS'http://www.hm.com/us/product/83560?article=83560-E'
p2661
aS'http://www.hm.com/us/product/59001?article=59001-A'
p2662
aS'http://www.hm.com/us/product/63546?article=63546-A'
p2663
aS'http://www.hm.com/us/product/63493?article=63493-A'
p2664
aS'http://www.hm.com/us/product/20343?article=20343-J'
p2665
aS'http://www.hm.com/us/product/65088?article=65088-B'
p2666
aS'http://www.hm.com/us/product/64377?article=64377-A'
p2667
aS'http://www.hm.com/us/product/66883?article=66883-A'
p2668
aS'http://www.hm.com/us/product/20244?article=20244-B'
p2669
aS'http://www.hm.com/us/product/63698?article=63698-A'
p2670
aS'http://www.hm.com/us/product/54437?article=54437-B'
p2671
aS'http://www.hm.com/us/product/63781?article=63781-A'
p2672
aS'http://www.hm.com/us/product/59145?article=59145-B'
p2673
aS'http://www.hm.com/us/product/59490?article=59490-C'
p2674
aS'http://www.hm.com/us/product/49069?article=49069-P'
p2675
aS'http://www.hm.com/us/product/64728?article=64728-A'
p2676
aS'http://www.hm.com/us/product/62532?article=62532-A'
p2677
aS'http://www.hm.com/us/product/63658?article=63658-A'
p2678
aS'http://www.hm.com/us/product/61310?article=61310-D'
p2679
aS'http://www.hm.com/us/product/61045?article=61045-A'
p2680
aS'http://www.hm.com/us/product/65022?article=65022-A'
p2681
aS'http://www.hm.com/us/product/65630?article=65630-B'
p2682
aS'http://www.hm.com/us/product/47473?article=47473-B'
p2683
aS'http://www.hm.com/us/product/65241?article=65241-A'
p2684
aS'http://www.hm.com/us/product/56263?article=56263-A'
p2685
aS'http://www.hm.com/us/product/59067?article=59067-A'
p2686
aS'http://www.hm.com/us/product/63334?article=63334-B'
p2687
aS'http://www.hm.com/us/product/64873?article=64873-A'
p2688
aS'http://www.hm.com/us/product/62057?article=62057-B'
p2689
aS'http://www.hm.com/us/product/61884?article=61884-A'
p2690
aS'http://www.hm.com/us/product/63100?article=63100-A'
p2691
aS'http://www.hm.com/us/product/48537?article=48537-B'
p2692
aS'http://www.hm.com/us/product/42548?article=42548-H'
p2693
aS'http://www.hm.com/us/product/71003?article=71003-A'
p2694
aS'http://www.hm.com/us/product/68430?article=68430-C'
p2695
a.